ARM GAS  C:\Users\Adeel\AppData\Local\Temp\ccys3HkN.s 			page 1


   1              		.cpu cortex-m0
   2              		.fpu softvfp
   3              		.eabi_attribute 20, 1
   4              		.eabi_attribute 21, 1
   5              		.eabi_attribute 23, 3
   6              		.eabi_attribute 24, 1
   7              		.eabi_attribute 25, 1
   8              		.eabi_attribute 26, 1
   9              		.eabi_attribute 30, 6
  10              		.eabi_attribute 34, 0
  11              		.eabi_attribute 18, 4
  12              		.code	16
  13              		.file	"BLE_eventHandler.c"
  14              		.text
  15              	.Ltext0:
  16              		.cfi_sections	.debug_frame
  17              		.comm	cyBle_eventHandlerFlag,1,1
  18              		.comm	cyBle_connHandle,2,4
  19              		.comm	cyBle_busStatus,1,1
  20              		.comm	cyBle_advertisingIntervalType,1,1
  21              		.global	cyBle_authInfo
  22              		.data
  23              		.align	2
  24              		.type	cyBle_authInfo, %object
  25              		.size	cyBle_authInfo, 4
  26              	cyBle_authInfo:
  27 0000 10       		.byte	16
  28 0001 00       		.byte	0
  29 0002 10       		.byte	16
  30 0003 00       		.byte	0
  31              		.section	.text.CyBle_WriteReqHandler,"ax",%progbits
  32              		.align	2
  33              		.code	16
  34              		.thumb_func
  35              		.type	CyBle_WriteReqHandler, %function
  36              	CyBle_WriteReqHandler:
  37              	.LFB2:
  38              		.file 1 ".\\Generated_Source\\PSoC4\\BLE_eventHandler.c"
   1:.\Generated_Source\PSoC4/BLE_eventHandler.c **** /*******************************************************************************
   2:.\Generated_Source\PSoC4/BLE_eventHandler.c **** File Name: CYBLE_eventHandler.c
   3:.\Generated_Source\PSoC4/BLE_eventHandler.c **** Version 1.10
   4:.\Generated_Source\PSoC4/BLE_eventHandler.c **** 
   5:.\Generated_Source\PSoC4/BLE_eventHandler.c **** Description:
   6:.\Generated_Source\PSoC4/BLE_eventHandler.c ****  This file contains the source code for the Event Handler State Machine
   7:.\Generated_Source\PSoC4/BLE_eventHandler.c ****  of the BLE Component.
   8:.\Generated_Source\PSoC4/BLE_eventHandler.c **** 
   9:.\Generated_Source\PSoC4/BLE_eventHandler.c **** ********************************************************************************
  10:.\Generated_Source\PSoC4/BLE_eventHandler.c **** Copyright 2014, Cypress Semiconductor Corporation.  All rights reserved.
  11:.\Generated_Source\PSoC4/BLE_eventHandler.c **** You may use this file only in accordance with the license, terms, conditions,
  12:.\Generated_Source\PSoC4/BLE_eventHandler.c **** disclaimers, and limitations in the end user license agreement accompanying
  13:.\Generated_Source\PSoC4/BLE_eventHandler.c **** the software package with which this file was provided.
  14:.\Generated_Source\PSoC4/BLE_eventHandler.c **** *******************************************************************************/
  15:.\Generated_Source\PSoC4/BLE_eventHandler.c **** 
  16:.\Generated_Source\PSoC4/BLE_eventHandler.c **** #include "BLE_eventHandler.h"
  17:.\Generated_Source\PSoC4/BLE_eventHandler.c **** 
  18:.\Generated_Source\PSoC4/BLE_eventHandler.c **** 
  19:.\Generated_Source\PSoC4/BLE_eventHandler.c **** /***************************************
ARM GAS  C:\Users\Adeel\AppData\Local\Temp\ccys3HkN.s 			page 2


  20:.\Generated_Source\PSoC4/BLE_eventHandler.c **** ##Private Function Prototypes
  21:.\Generated_Source\PSoC4/BLE_eventHandler.c **** ***************************************/
  22:.\Generated_Source\PSoC4/BLE_eventHandler.c **** 
  23:.\Generated_Source\PSoC4/BLE_eventHandler.c **** #if (CYBLE_GATT_ROLE_SERVER || CYBLE_GATT_ROLE_CLIENT)
  24:.\Generated_Source\PSoC4/BLE_eventHandler.c **** 
  25:.\Generated_Source\PSoC4/BLE_eventHandler.c **** static uint8 CyBle_IsDeviceAddressValid(const CYBLE_GAP_BD_ADDR_T *sflashDeviceAddress);
  26:.\Generated_Source\PSoC4/BLE_eventHandler.c **** 
  27:.\Generated_Source\PSoC4/BLE_eventHandler.c **** #endif /* (CYBLE_GATT_ROLE_SERVER || CYBLE_GATT_ROLE_CLIENT) */
  28:.\Generated_Source\PSoC4/BLE_eventHandler.c **** 
  29:.\Generated_Source\PSoC4/BLE_eventHandler.c **** static void CyBle_GattDisconnectEventHandler(void);
  30:.\Generated_Source\PSoC4/BLE_eventHandler.c **** static void CyBle_TimeOutEventHandler(const CYBLE_TO_REASON_CODE_T *eventParam);
  31:.\Generated_Source\PSoC4/BLE_eventHandler.c **** static void CyBle_GattConnectReqHandler(void);
  32:.\Generated_Source\PSoC4/BLE_eventHandler.c **** static void CyBle_L2Cap_ConnParamUpdateRspEventHandler(uint16 response);
  33:.\Generated_Source\PSoC4/BLE_eventHandler.c **** static void CyBle_GapConnUpdateCompleteEventHandler(const CYBLE_GAP_CONN_PARAM_UPDATED_IN_CONTROLLE
  34:.\Generated_Source\PSoC4/BLE_eventHandler.c **** 
  35:.\Generated_Source\PSoC4/BLE_eventHandler.c **** 
  36:.\Generated_Source\PSoC4/BLE_eventHandler.c **** #if (CYBLE_GATT_ROLE_SERVER)
  37:.\Generated_Source\PSoC4/BLE_eventHandler.c **** 
  38:.\Generated_Source\PSoC4/BLE_eventHandler.c **** static void CyBle_WriteReqHandler(CYBLE_GATTS_WRITE_REQ_PARAM_T *eventParam);
  39:.\Generated_Source\PSoC4/BLE_eventHandler.c **** static void CyBle_ValueConfirmation(const CYBLE_CONN_HANDLE_T *eventParam);
  40:.\Generated_Source\PSoC4/BLE_eventHandler.c **** 
  41:.\Generated_Source\PSoC4/BLE_eventHandler.c **** #endif /* (CYBLE_GATT_ROLE_SERVER) */
  42:.\Generated_Source\PSoC4/BLE_eventHandler.c **** 
  43:.\Generated_Source\PSoC4/BLE_eventHandler.c **** #if (CYBLE_GATT_ROLE_CLIENT)
  44:.\Generated_Source\PSoC4/BLE_eventHandler.c **** 
  45:.\Generated_Source\PSoC4/BLE_eventHandler.c **** static void CyBle_GapcDiscoverCharacteristicsEventHandler(CYBLE_DISC_CHAR_INFO_T *discCharInfo);
  46:.\Generated_Source\PSoC4/BLE_eventHandler.c **** static CYBLE_GATT_ATTR_HANDLE_RANGE_T CyBle_GetCharRange(void);
  47:.\Generated_Source\PSoC4/BLE_eventHandler.c **** static void CyBle_GattcWriteResponseEventHandler(const CYBLE_CONN_HANDLE_T *eventParam);
  48:.\Generated_Source\PSoC4/BLE_eventHandler.c **** 
  49:.\Generated_Source\PSoC4/BLE_eventHandler.c **** #endif /* (CYBLE_GATT_ROLE_CLIENT) */
  50:.\Generated_Source\PSoC4/BLE_eventHandler.c **** 
  51:.\Generated_Source\PSoC4/BLE_eventHandler.c **** 
  52:.\Generated_Source\PSoC4/BLE_eventHandler.c **** /***************************************
  53:.\Generated_Source\PSoC4/BLE_eventHandler.c **** ##Global Variables
  54:.\Generated_Source\PSoC4/BLE_eventHandler.c **** ***************************************/
  55:.\Generated_Source\PSoC4/BLE_eventHandler.c **** 
  56:.\Generated_Source\PSoC4/BLE_eventHandler.c **** volatile uint8 cyBle_eventHandlerFlag;
  57:.\Generated_Source\PSoC4/BLE_eventHandler.c **** CYBLE_CONN_HANDLE_T cyBle_connHandle;
  58:.\Generated_Source\PSoC4/BLE_eventHandler.c **** volatile uint8 cyBle_busStatus;
  59:.\Generated_Source\PSoC4/BLE_eventHandler.c **** 
  60:.\Generated_Source\PSoC4/BLE_eventHandler.c **** #if(CYBLE_GAP_ROLE_PERIPHERAL || CYBLE_GAP_ROLE_BROADCASTER) 
  61:.\Generated_Source\PSoC4/BLE_eventHandler.c ****     uint8 cyBle_advertisingIntervalType;
  62:.\Generated_Source\PSoC4/BLE_eventHandler.c **** #endif /* (CYBLE_GAP_ROLE_PERIPHERAL || CYBLE_GAP_ROLE_BROADCASTER) */
  63:.\Generated_Source\PSoC4/BLE_eventHandler.c **** 
  64:.\Generated_Source\PSoC4/BLE_eventHandler.c **** #if(CYBLE_GAP_ROLE_CENTRAL || CYBLE_GAP_ROLE_OBSERVER) 
  65:.\Generated_Source\PSoC4/BLE_eventHandler.c ****     uint8 cyBle_scanningIntervalType;
  66:.\Generated_Source\PSoC4/BLE_eventHandler.c **** #endif /* CYBLE_GAP_ROLE_CENTRAL || CYBLE_GAP_ROLE_OBSERVER */
  67:.\Generated_Source\PSoC4/BLE_eventHandler.c **** 
  68:.\Generated_Source\PSoC4/BLE_eventHandler.c **** #if(CYBLE_GATT_ROLE_CLIENT)
  69:.\Generated_Source\PSoC4/BLE_eventHandler.c **** uint8 cyBle_disCount; /* Counter for discovery procedures */
  70:.\Generated_Source\PSoC4/BLE_eventHandler.c **** static CYBLE_GATT_DB_ATTR_HANDLE_T cyBle_charEndHandle;
  71:.\Generated_Source\PSoC4/BLE_eventHandler.c **** #ifdef CYBLE_HIDS_CLIENT
  72:.\Generated_Source\PSoC4/BLE_eventHandler.c ****     static uint8 disServiceIndex;      /* To discovery descriptors for multiple HID service instanc
  73:.\Generated_Source\PSoC4/BLE_eventHandler.c **** #endif /* defined(CYBLE_HIDS_CLIENT) */
  74:.\Generated_Source\PSoC4/BLE_eventHandler.c **** 
  75:.\Generated_Source\PSoC4/BLE_eventHandler.c **** CYBLE_DISC_SRVC_INFO_T cyBle_serverInfo[CYBLE_SRVI_COUNT] = /*3*/
  76:.\Generated_Source\PSoC4/BLE_eventHandler.c **** {
ARM GAS  C:\Users\Adeel\AppData\Local\Temp\ccys3HkN.s 			page 3


  77:.\Generated_Source\PSoC4/BLE_eventHandler.c ****     {{CYBLE_GATT_INVALID_ATTR_HANDLE_VALUE, CYBLE_GATT_INVALID_ATTR_HANDLE_VALUE}, CYBLE_UUID_GAP_S
  78:.\Generated_Source\PSoC4/BLE_eventHandler.c ****     {{CYBLE_GATT_INVALID_ATTR_HANDLE_VALUE, CYBLE_GATT_INVALID_ATTR_HANDLE_VALUE}, CYBLE_UUID_GATT_
  79:.\Generated_Source\PSoC4/BLE_eventHandler.c **** #ifdef CYBLE_ANS_CLIENT
  80:.\Generated_Source\PSoC4/BLE_eventHandler.c ****     {{CYBLE_GATT_INVALID_ATTR_HANDLE_VALUE, CYBLE_GATT_INVALID_ATTR_HANDLE_VALUE}, CYBLE_UUID_ALERT
  81:.\Generated_Source\PSoC4/BLE_eventHandler.c **** #endif /* CYBLE_ANS_CLIENT */
  82:.\Generated_Source\PSoC4/BLE_eventHandler.c **** #ifdef CYBLE_BAS_CLIENT
  83:.\Generated_Source\PSoC4/BLE_eventHandler.c ****     {{CYBLE_GATT_INVALID_ATTR_HANDLE_VALUE, CYBLE_GATT_INVALID_ATTR_HANDLE_VALUE}, CYBLE_UUID_BAS_S
  84:.\Generated_Source\PSoC4/BLE_eventHandler.c ****     #if(CYBLE_BASC_SERVICE_COUNT > 1u) /* Generate it by GUI */
  85:.\Generated_Source\PSoC4/BLE_eventHandler.c ****         
  86:.\Generated_Source\PSoC4/BLE_eventHandler.c ****     #endif /* CYBLE_BASC_SERVICE_COUNT > 1u */
  87:.\Generated_Source\PSoC4/BLE_eventHandler.c **** #endif /* CYBLE_BAS_CLIENT */
  88:.\Generated_Source\PSoC4/BLE_eventHandler.c **** #ifdef CYBLE_BLS_CLIENT
  89:.\Generated_Source\PSoC4/BLE_eventHandler.c ****     {{CYBLE_GATT_INVALID_ATTR_HANDLE_VALUE, CYBLE_GATT_INVALID_ATTR_HANDLE_VALUE}, CYBLE_UUID_BLOOD
  90:.\Generated_Source\PSoC4/BLE_eventHandler.c **** #endif /* CYBLE_BLS_CLIENT */
  91:.\Generated_Source\PSoC4/BLE_eventHandler.c **** #ifdef CYBLE_CPS_CLIENT
  92:.\Generated_Source\PSoC4/BLE_eventHandler.c ****     {{CYBLE_GATT_INVALID_ATTR_HANDLE_VALUE, CYBLE_GATT_INVALID_ATTR_HANDLE_VALUE}, CYBLE_UUID_CPS_S
  93:.\Generated_Source\PSoC4/BLE_eventHandler.c **** #endif /* CYBLE_CPS_CLIENT */
  94:.\Generated_Source\PSoC4/BLE_eventHandler.c **** #ifdef CYBLE_CSCS_CLIENT
  95:.\Generated_Source\PSoC4/BLE_eventHandler.c ****     {{CYBLE_GATT_INVALID_ATTR_HANDLE_VALUE, CYBLE_GATT_INVALID_ATTR_HANDLE_VALUE}, CYBLE_UUID_CYCLI
  96:.\Generated_Source\PSoC4/BLE_eventHandler.c **** #endif /* CYBLE_CSCS_CLIENT */
  97:.\Generated_Source\PSoC4/BLE_eventHandler.c **** #ifdef CYBLE_CTS_CLIENT
  98:.\Generated_Source\PSoC4/BLE_eventHandler.c ****     {{CYBLE_GATT_INVALID_ATTR_HANDLE_VALUE, CYBLE_GATT_INVALID_ATTR_HANDLE_VALUE}, CYBLE_UUID_CURRE
  99:.\Generated_Source\PSoC4/BLE_eventHandler.c **** #endif /* CYBLE_CTS_CLIENT */
 100:.\Generated_Source\PSoC4/BLE_eventHandler.c **** #ifdef CYBLE_DIS_CLIENT
 101:.\Generated_Source\PSoC4/BLE_eventHandler.c ****     {{CYBLE_GATT_INVALID_ATTR_HANDLE_VALUE, CYBLE_GATT_INVALID_ATTR_HANDLE_VALUE}, CYBLE_UUID_DEVIC
 102:.\Generated_Source\PSoC4/BLE_eventHandler.c **** #endif /* CYBLE_DIS_CLIENT */
 103:.\Generated_Source\PSoC4/BLE_eventHandler.c **** #ifdef CYBLE_GLS_CLIENT
 104:.\Generated_Source\PSoC4/BLE_eventHandler.c ****     {{CYBLE_GATT_INVALID_ATTR_HANDLE_VALUE, CYBLE_GATT_INVALID_ATTR_HANDLE_VALUE}, CYBLE_UUID_GLUCO
 105:.\Generated_Source\PSoC4/BLE_eventHandler.c **** #endif /* CYBLE_GLS_CLIENT */
 106:.\Generated_Source\PSoC4/BLE_eventHandler.c **** #ifdef CYBLE_HIDS_CLIENT
 107:.\Generated_Source\PSoC4/BLE_eventHandler.c ****     {{CYBLE_GATT_INVALID_ATTR_HANDLE_VALUE, CYBLE_GATT_INVALID_ATTR_HANDLE_VALUE}, CYBLE_UUID_HIDS_
 108:.\Generated_Source\PSoC4/BLE_eventHandler.c ****     #if(CYBLE_HIDSC_SERVICE_COUNT > 1u) /* Generate it by GUI */
 109:.\Generated_Source\PSoC4/BLE_eventHandler.c ****         
 110:.\Generated_Source\PSoC4/BLE_eventHandler.c ****     #endif /* CYBLE_HIDSC_SERVICE_COUNT > 1u */
 111:.\Generated_Source\PSoC4/BLE_eventHandler.c **** #endif /* CYBLE_HIDS_CLIENT */
 112:.\Generated_Source\PSoC4/BLE_eventHandler.c **** #ifdef CYBLE_HRS_CLIENT
 113:.\Generated_Source\PSoC4/BLE_eventHandler.c ****     {{CYBLE_GATT_INVALID_ATTR_HANDLE_VALUE, CYBLE_GATT_INVALID_ATTR_HANDLE_VALUE}, CYBLE_UUID_HEART
 114:.\Generated_Source\PSoC4/BLE_eventHandler.c **** #endif /* CYBLE_HRS_CLIENT */
 115:.\Generated_Source\PSoC4/BLE_eventHandler.c **** #ifdef CYBLE_HTS_CLIENT
 116:.\Generated_Source\PSoC4/BLE_eventHandler.c ****     {{CYBLE_GATT_INVALID_ATTR_HANDLE_VALUE, CYBLE_GATT_INVALID_ATTR_HANDLE_VALUE}, CYBLE_UUID_HEALT
 117:.\Generated_Source\PSoC4/BLE_eventHandler.c **** #endif /* CYBLE_HTS_CLIENT */
 118:.\Generated_Source\PSoC4/BLE_eventHandler.c **** #ifdef CYBLE_IAS_CLIENT
 119:.\Generated_Source\PSoC4/BLE_eventHandler.c ****     {{CYBLE_GATT_INVALID_ATTR_HANDLE_VALUE, CYBLE_GATT_INVALID_ATTR_HANDLE_VALUE}, CYBLE_UUID_IMMED
 120:.\Generated_Source\PSoC4/BLE_eventHandler.c **** #endif /* CYBLE_IAS_CLIENT */
 121:.\Generated_Source\PSoC4/BLE_eventHandler.c **** #ifdef CYBLE_LLS_CLIENT
 122:.\Generated_Source\PSoC4/BLE_eventHandler.c ****     {{CYBLE_GATT_INVALID_ATTR_HANDLE_VALUE, CYBLE_GATT_INVALID_ATTR_HANDLE_VALUE}, CYBLE_UUID_LINK_
 123:.\Generated_Source\PSoC4/BLE_eventHandler.c **** #endif /* CYBLE_LLS_CLIENT */
 124:.\Generated_Source\PSoC4/BLE_eventHandler.c **** #ifdef CYBLE_LNS_CLIENT
 125:.\Generated_Source\PSoC4/BLE_eventHandler.c ****     {{CYBLE_GATT_INVALID_ATTR_HANDLE_VALUE, CYBLE_GATT_INVALID_ATTR_HANDLE_VALUE}, CYBLE_UUID_LOCAT
 126:.\Generated_Source\PSoC4/BLE_eventHandler.c **** #endif /* CYBLE_LNS_CLIENT */
 127:.\Generated_Source\PSoC4/BLE_eventHandler.c **** #ifdef CYBLE_NDCS_CLIENT
 128:.\Generated_Source\PSoC4/BLE_eventHandler.c ****     {{CYBLE_GATT_INVALID_ATTR_HANDLE_VALUE, CYBLE_GATT_INVALID_ATTR_HANDLE_VALUE}, CYBLE_UUID_NEXT_
 129:.\Generated_Source\PSoC4/BLE_eventHandler.c **** #endif /* CYBLE_NDCS_CLIENT */
 130:.\Generated_Source\PSoC4/BLE_eventHandler.c **** #ifdef CYBLE_PASS_CLIENT
 131:.\Generated_Source\PSoC4/BLE_eventHandler.c ****     {{CYBLE_GATT_INVALID_ATTR_HANDLE_VALUE, CYBLE_GATT_INVALID_ATTR_HANDLE_VALUE}, CYBLE_UUID_PHONE
 132:.\Generated_Source\PSoC4/BLE_eventHandler.c **** #endif /* CYBLE_PASS_CLIENT */
 133:.\Generated_Source\PSoC4/BLE_eventHandler.c **** #ifdef CYBLE_RSCS_CLIENT
ARM GAS  C:\Users\Adeel\AppData\Local\Temp\ccys3HkN.s 			page 4


 134:.\Generated_Source\PSoC4/BLE_eventHandler.c ****     {{CYBLE_GATT_INVALID_ATTR_HANDLE_VALUE, CYBLE_GATT_INVALID_ATTR_HANDLE_VALUE}, CYBLE_UUID_RUNNI
 135:.\Generated_Source\PSoC4/BLE_eventHandler.c **** #endif /* CYBLE_RSCS_CLIENT */
 136:.\Generated_Source\PSoC4/BLE_eventHandler.c **** #ifdef CYBLE_RTUS_CLIENT
 137:.\Generated_Source\PSoC4/BLE_eventHandler.c ****     {{CYBLE_GATT_INVALID_ATTR_HANDLE_VALUE, CYBLE_GATT_INVALID_ATTR_HANDLE_VALUE}, CYBLE_UUID_REF_T
 138:.\Generated_Source\PSoC4/BLE_eventHandler.c **** #endif /* CYBLE_RTUS_CLIENT */
 139:.\Generated_Source\PSoC4/BLE_eventHandler.c **** #ifdef CYBLE_SCPS_CLIENT
 140:.\Generated_Source\PSoC4/BLE_eventHandler.c ****     {{CYBLE_GATT_INVALID_ATTR_HANDLE_VALUE, CYBLE_GATT_INVALID_ATTR_HANDLE_VALUE}, CYBLE_UUID_SCAN_
 141:.\Generated_Source\PSoC4/BLE_eventHandler.c **** #endif /* CYBLE_SCPS_CLIENT */
 142:.\Generated_Source\PSoC4/BLE_eventHandler.c **** #ifdef CYBLE_TPS_CLIENT
 143:.\Generated_Source\PSoC4/BLE_eventHandler.c ****     {{CYBLE_GATT_INVALID_ATTR_HANDLE_VALUE, CYBLE_GATT_INVALID_ATTR_HANDLE_VALUE}, CYBLE_UUID_TX_PO
 144:.\Generated_Source\PSoC4/BLE_eventHandler.c **** #endif /* CYBLE_TPS_CLIENT */
 145:.\Generated_Source\PSoC4/BLE_eventHandler.c **** 
 146:.\Generated_Source\PSoC4/BLE_eventHandler.c **** };
 147:.\Generated_Source\PSoC4/BLE_eventHandler.c **** 
 148:.\Generated_Source\PSoC4/BLE_eventHandler.c **** CYBLE_GAPC_T cyBle_gapc;
 149:.\Generated_Source\PSoC4/BLE_eventHandler.c **** 
 150:.\Generated_Source\PSoC4/BLE_eventHandler.c **** #endif /* CYBLE_GATT_ROLE_CLIENT */
 151:.\Generated_Source\PSoC4/BLE_eventHandler.c **** 
 152:.\Generated_Source\PSoC4/BLE_eventHandler.c **** /* Default device security */
 153:.\Generated_Source\PSoC4/BLE_eventHandler.c **** CYBLE_GAP_AUTH_INFO_T cyBle_authInfo =
 154:.\Generated_Source\PSoC4/BLE_eventHandler.c **** {
 155:.\Generated_Source\PSoC4/BLE_eventHandler.c ****     (CYBLE_GAP_SEC_MODE_1 | CYBLE_GAP_SEC_LEVEL_1 ), /* uint8 security */
 156:.\Generated_Source\PSoC4/BLE_eventHandler.c ****     CYBLE_GAP_BONDING_NONE, /* uint8 bonding */
 157:.\Generated_Source\PSoC4/BLE_eventHandler.c ****     0x10u,      /* uint8 ekeySize */
 158:.\Generated_Source\PSoC4/BLE_eventHandler.c ****     CYBLE_GAP_AUTH_ERROR_NONE, /* CYBLE_AUTH_FAILED_REASON_T authErr */
 159:.\Generated_Source\PSoC4/BLE_eventHandler.c **** };
 160:.\Generated_Source\PSoC4/BLE_eventHandler.c **** 
 161:.\Generated_Source\PSoC4/BLE_eventHandler.c **** #if(CYBLE_GATT_ROLE_SERVER)
 162:.\Generated_Source\PSoC4/BLE_eventHandler.c **** 
 163:.\Generated_Source\PSoC4/BLE_eventHandler.c **** 
 164:.\Generated_Source\PSoC4/BLE_eventHandler.c **** /******************************************************************************    
 165:.\Generated_Source\PSoC4/BLE_eventHandler.c **** ##Function Name: CyBle_WriteReqHandler
 166:.\Generated_Source\PSoC4/BLE_eventHandler.c **** *******************************************************************************
 167:.\Generated_Source\PSoC4/BLE_eventHandler.c **** 
 168:.\Generated_Source\PSoC4/BLE_eventHandler.c **** Summary:
 169:.\Generated_Source\PSoC4/BLE_eventHandler.c ****  Handles the Write Request event from BLE stack.
 170:.\Generated_Source\PSoC4/BLE_eventHandler.c **** 
 171:.\Generated_Source\PSoC4/BLE_eventHandler.c **** Parameters:
 172:.\Generated_Source\PSoC4/BLE_eventHandler.c ****  CYBLE_GATTS_WRITE_REQ_PARAM_T * eventParam - event parameter
 173:.\Generated_Source\PSoC4/BLE_eventHandler.c **** 
 174:.\Generated_Source\PSoC4/BLE_eventHandler.c **** Return:
 175:.\Generated_Source\PSoC4/BLE_eventHandler.c ****  None
 176:.\Generated_Source\PSoC4/BLE_eventHandler.c **** 
 177:.\Generated_Source\PSoC4/BLE_eventHandler.c **** ******************************************************************************/
 178:.\Generated_Source\PSoC4/BLE_eventHandler.c **** static void CyBle_WriteReqHandler(CYBLE_GATTS_WRITE_REQ_PARAM_T *eventParam)
 179:.\Generated_Source\PSoC4/BLE_eventHandler.c **** {
  39              		.loc 1 179 0
  40              		.cfi_startproc
  41 0000 90B5     		push	{r4, r7, lr}
  42              		.cfi_def_cfa_offset 12
  43              		.cfi_offset 4, -12
  44              		.cfi_offset 7, -8
  45              		.cfi_offset 14, -4
  46 0002 85B0     		sub	sp, sp, #20
  47              		.cfi_def_cfa_offset 32
  48 0004 00AF     		add	r7, sp, #0
  49              		.cfi_def_cfa_register 7
ARM GAS  C:\Users\Adeel\AppData\Local\Temp\ccys3HkN.s 			page 5


  50 0006 7860     		str	r0, [r7, #4]
 180:.\Generated_Source\PSoC4/BLE_eventHandler.c ****     CYBLE_GATT_ERR_CODE_T gattErr;
 181:.\Generated_Source\PSoC4/BLE_eventHandler.c ****     
 182:.\Generated_Source\PSoC4/BLE_eventHandler.c ****     gattErr = CyBle_GattsWriteEventHandler(eventParam);
  51              		.loc 1 182 0
  52 0008 3C1C     		mov	r4, r7
  53 000a 0F34     		add	r4, r4, #15
  54 000c 7B68     		ldr	r3, [r7, #4]
  55 000e 181C     		mov	r0, r3
  56 0010 FFF7FEFF 		bl	CyBle_GattsWriteEventHandler
  57 0014 031C     		mov	r3, r0
  58 0016 2370     		strb	r3, [r4]
 183:.\Generated_Source\PSoC4/BLE_eventHandler.c **** #if defined(CYBLE_ANS_SERVER)
 184:.\Generated_Source\PSoC4/BLE_eventHandler.c ****     if((CYBLE_GATT_ERR_NONE == gattErr) && ((cyBle_eventHandlerFlag & CYBLE_CALLBACK) != 0u))
 185:.\Generated_Source\PSoC4/BLE_eventHandler.c ****     {
 186:.\Generated_Source\PSoC4/BLE_eventHandler.c ****         gattErr = CyBle_AnssWriteEventHandler(eventParam);
 187:.\Generated_Source\PSoC4/BLE_eventHandler.c ****     }
 188:.\Generated_Source\PSoC4/BLE_eventHandler.c **** #endif /* defined(CYBLE_ANS_SERVER) */
 189:.\Generated_Source\PSoC4/BLE_eventHandler.c **** #if defined(CYBLE_BAS_SERVER)
 190:.\Generated_Source\PSoC4/BLE_eventHandler.c ****     if((CYBLE_GATT_ERR_NONE == gattErr) && ((cyBle_eventHandlerFlag & CYBLE_CALLBACK) != 0u))
 191:.\Generated_Source\PSoC4/BLE_eventHandler.c ****     {
 192:.\Generated_Source\PSoC4/BLE_eventHandler.c ****         gattErr = CyBle_BassWriteEventHandler(eventParam);
 193:.\Generated_Source\PSoC4/BLE_eventHandler.c ****     }
 194:.\Generated_Source\PSoC4/BLE_eventHandler.c **** #endif /* defined(CYBLE_BAS_SERVER) */
 195:.\Generated_Source\PSoC4/BLE_eventHandler.c **** #if defined(CYBLE_BLS_SERVER)
 196:.\Generated_Source\PSoC4/BLE_eventHandler.c ****     if((CYBLE_GATT_ERR_NONE == gattErr) && ((cyBle_eventHandlerFlag & CYBLE_CALLBACK) != 0u))
 197:.\Generated_Source\PSoC4/BLE_eventHandler.c ****     {
 198:.\Generated_Source\PSoC4/BLE_eventHandler.c ****         gattErr = CyBle_BlssWriteEventHandler(eventParam);
 199:.\Generated_Source\PSoC4/BLE_eventHandler.c ****     }
 200:.\Generated_Source\PSoC4/BLE_eventHandler.c **** #endif /* defined(CYBLE_BLS_SERVER) */
 201:.\Generated_Source\PSoC4/BLE_eventHandler.c **** #if defined(CYBLE_CPS_SERVER)
 202:.\Generated_Source\PSoC4/BLE_eventHandler.c ****     if((CYBLE_GATT_ERR_NONE == gattErr) && ((cyBle_eventHandlerFlag & CYBLE_CALLBACK) != 0u))
 203:.\Generated_Source\PSoC4/BLE_eventHandler.c ****     {
 204:.\Generated_Source\PSoC4/BLE_eventHandler.c ****         gattErr = CyBle_CpssWriteEventHandler(eventParam);
 205:.\Generated_Source\PSoC4/BLE_eventHandler.c ****     }
 206:.\Generated_Source\PSoC4/BLE_eventHandler.c **** #endif /* defined(CYBLE_CPS_SERVER) */
 207:.\Generated_Source\PSoC4/BLE_eventHandler.c **** #if defined(CYBLE_CSCS_SERVER)
 208:.\Generated_Source\PSoC4/BLE_eventHandler.c ****     if((CYBLE_GATT_ERR_NONE == gattErr) && ((cyBle_eventHandlerFlag & CYBLE_CALLBACK) != 0u))
 209:.\Generated_Source\PSoC4/BLE_eventHandler.c ****     {
 210:.\Generated_Source\PSoC4/BLE_eventHandler.c ****         gattErr = CyBle_CscssWriteEventHandler(eventParam);
 211:.\Generated_Source\PSoC4/BLE_eventHandler.c ****     }
 212:.\Generated_Source\PSoC4/BLE_eventHandler.c **** #endif /* defined(CYBLE_CSCS_SERVER) */
 213:.\Generated_Source\PSoC4/BLE_eventHandler.c **** #if defined(CYBLE_CTS_SERVER)
 214:.\Generated_Source\PSoC4/BLE_eventHandler.c ****     if((CYBLE_GATT_ERR_NONE == gattErr) && ((cyBle_eventHandlerFlag & CYBLE_CALLBACK) != 0u))
 215:.\Generated_Source\PSoC4/BLE_eventHandler.c ****     {
 216:.\Generated_Source\PSoC4/BLE_eventHandler.c ****         gattErr = CyBle_CtssWriteEventHandler(eventParam);
 217:.\Generated_Source\PSoC4/BLE_eventHandler.c ****     }
 218:.\Generated_Source\PSoC4/BLE_eventHandler.c **** #endif /* defined(CYBLE_CTS_SERVER) */
 219:.\Generated_Source\PSoC4/BLE_eventHandler.c **** #if defined(CYBLE_GLS_SERVER)
 220:.\Generated_Source\PSoC4/BLE_eventHandler.c ****     if((CYBLE_GATT_ERR_NONE == gattErr) && ((cyBle_eventHandlerFlag & CYBLE_CALLBACK) != 0u))
 221:.\Generated_Source\PSoC4/BLE_eventHandler.c ****     {
 222:.\Generated_Source\PSoC4/BLE_eventHandler.c ****         gattErr = CyBle_GlssWriteEventHandler(eventParam);
 223:.\Generated_Source\PSoC4/BLE_eventHandler.c ****     }
 224:.\Generated_Source\PSoC4/BLE_eventHandler.c **** #endif /* defined(CYBLE_GLS_SERVER) */
 225:.\Generated_Source\PSoC4/BLE_eventHandler.c **** #if defined(CYBLE_HIDS_SERVER)
 226:.\Generated_Source\PSoC4/BLE_eventHandler.c ****     if((CYBLE_GATT_ERR_NONE == gattErr) && ((cyBle_eventHandlerFlag & CYBLE_CALLBACK) != 0u))
 227:.\Generated_Source\PSoC4/BLE_eventHandler.c ****     {
ARM GAS  C:\Users\Adeel\AppData\Local\Temp\ccys3HkN.s 			page 6


 228:.\Generated_Source\PSoC4/BLE_eventHandler.c ****         gattErr = CyBle_HidssWriteEventHandler(eventParam);
 229:.\Generated_Source\PSoC4/BLE_eventHandler.c ****     }
 230:.\Generated_Source\PSoC4/BLE_eventHandler.c **** #endif /* defined(CYBLE_HIDS_SERVER) */
 231:.\Generated_Source\PSoC4/BLE_eventHandler.c **** #if defined(CYBLE_HRS_SERVER)
 232:.\Generated_Source\PSoC4/BLE_eventHandler.c ****     if((CYBLE_GATT_ERR_NONE == gattErr) && ((cyBle_eventHandlerFlag & CYBLE_CALLBACK) != 0u))
 233:.\Generated_Source\PSoC4/BLE_eventHandler.c ****     {
 234:.\Generated_Source\PSoC4/BLE_eventHandler.c ****         gattErr = CyBle_HrssWriteEventHandler(eventParam);
 235:.\Generated_Source\PSoC4/BLE_eventHandler.c ****     }
 236:.\Generated_Source\PSoC4/BLE_eventHandler.c **** #endif /* defined(CYBLE_HRS_SERVER) */
 237:.\Generated_Source\PSoC4/BLE_eventHandler.c **** #if defined(CYBLE_HTS_SERVER)
 238:.\Generated_Source\PSoC4/BLE_eventHandler.c ****     if((CYBLE_GATT_ERR_NONE == gattErr) && ((cyBle_eventHandlerFlag & CYBLE_CALLBACK) != 0u))
 239:.\Generated_Source\PSoC4/BLE_eventHandler.c ****     {
 240:.\Generated_Source\PSoC4/BLE_eventHandler.c ****         gattErr = CyBle_HtssWriteEventHandler(eventParam);
 241:.\Generated_Source\PSoC4/BLE_eventHandler.c ****     }
 242:.\Generated_Source\PSoC4/BLE_eventHandler.c **** #endif /* defined(CYBLE_TPS_SERVER) */
 243:.\Generated_Source\PSoC4/BLE_eventHandler.c **** #if defined(CYBLE_LLS_SERVER)
 244:.\Generated_Source\PSoC4/BLE_eventHandler.c ****     if((CYBLE_GATT_ERR_NONE == gattErr) && ((cyBle_eventHandlerFlag & CYBLE_CALLBACK) != 0u))
 245:.\Generated_Source\PSoC4/BLE_eventHandler.c ****     {
 246:.\Generated_Source\PSoC4/BLE_eventHandler.c ****         gattErr = CyBle_LlssWriteEventHandler(eventParam);
 247:.\Generated_Source\PSoC4/BLE_eventHandler.c ****     }
 248:.\Generated_Source\PSoC4/BLE_eventHandler.c **** #endif /* defined(CYBLE_LLS_SERVER) */
 249:.\Generated_Source\PSoC4/BLE_eventHandler.c **** #if defined(CYBLE_LNS_SERVER)
 250:.\Generated_Source\PSoC4/BLE_eventHandler.c ****     if((CYBLE_GATT_ERR_NONE == gattErr) && ((cyBle_eventHandlerFlag & CYBLE_CALLBACK) != 0u))
 251:.\Generated_Source\PSoC4/BLE_eventHandler.c ****     {
 252:.\Generated_Source\PSoC4/BLE_eventHandler.c ****         gattErr = CyBle_LnssWriteEventHandler(eventParam);
 253:.\Generated_Source\PSoC4/BLE_eventHandler.c ****     }
 254:.\Generated_Source\PSoC4/BLE_eventHandler.c **** #endif /* defined(CYBLE_LNS_SERVER) */
 255:.\Generated_Source\PSoC4/BLE_eventHandler.c **** #if defined(CYBLE_PASS_SERVER)
 256:.\Generated_Source\PSoC4/BLE_eventHandler.c ****     if((CYBLE_GATT_ERR_NONE == gattErr) && ((cyBle_eventHandlerFlag & CYBLE_CALLBACK) != 0u))
 257:.\Generated_Source\PSoC4/BLE_eventHandler.c ****     {
 258:.\Generated_Source\PSoC4/BLE_eventHandler.c ****         gattErr = CyBle_PasssWriteEventHandler(eventParam);
 259:.\Generated_Source\PSoC4/BLE_eventHandler.c ****     }
 260:.\Generated_Source\PSoC4/BLE_eventHandler.c **** #endif /* defined(CYBLE_PASS_SERVER) */
 261:.\Generated_Source\PSoC4/BLE_eventHandler.c **** #if defined(CYBLE_RSCS_SERVER)
 262:.\Generated_Source\PSoC4/BLE_eventHandler.c ****     if((CYBLE_GATT_ERR_NONE == gattErr) && ((cyBle_eventHandlerFlag & CYBLE_CALLBACK) != 0u))
 263:.\Generated_Source\PSoC4/BLE_eventHandler.c ****     {
 264:.\Generated_Source\PSoC4/BLE_eventHandler.c ****         gattErr = CyBle_RscssWriteEventHandler(eventParam);
 265:.\Generated_Source\PSoC4/BLE_eventHandler.c ****     }
 266:.\Generated_Source\PSoC4/BLE_eventHandler.c **** #endif /* defined(CYBLE_RSCS_SERVER) */
 267:.\Generated_Source\PSoC4/BLE_eventHandler.c **** #if defined(CYBLE_SCPS_SERVER)
 268:.\Generated_Source\PSoC4/BLE_eventHandler.c ****     if((CYBLE_GATT_ERR_NONE == gattErr) && ((cyBle_eventHandlerFlag & CYBLE_CALLBACK) != 0u))
 269:.\Generated_Source\PSoC4/BLE_eventHandler.c ****     {
 270:.\Generated_Source\PSoC4/BLE_eventHandler.c ****         gattErr = CyBle_ScpssWriteEventHandler(eventParam);
 271:.\Generated_Source\PSoC4/BLE_eventHandler.c ****     }
 272:.\Generated_Source\PSoC4/BLE_eventHandler.c **** #endif /* defined(CYBLE_SCPS_SERVER) */
 273:.\Generated_Source\PSoC4/BLE_eventHandler.c **** #if defined(CYBLE_TPS_SERVER)
 274:.\Generated_Source\PSoC4/BLE_eventHandler.c ****     if((CYBLE_GATT_ERR_NONE == gattErr) && ((cyBle_eventHandlerFlag & CYBLE_CALLBACK) != 0u))
 275:.\Generated_Source\PSoC4/BLE_eventHandler.c ****     {
 276:.\Generated_Source\PSoC4/BLE_eventHandler.c ****         gattErr = CyBle_TpssWriteEventHandler(eventParam);
 277:.\Generated_Source\PSoC4/BLE_eventHandler.c ****     }
 278:.\Generated_Source\PSoC4/BLE_eventHandler.c **** #endif /* defined(CYBLE_TPS_SERVER) */
 279:.\Generated_Source\PSoC4/BLE_eventHandler.c **** 
 280:.\Generated_Source\PSoC4/BLE_eventHandler.c ****     /* Send response when event was handled by service */
 281:.\Generated_Source\PSoC4/BLE_eventHandler.c ****     if((cyBle_eventHandlerFlag & CYBLE_CALLBACK) == 0u)
  59              		.loc 1 281 0
  60 0018 144B     		ldr	r3, .L4
  61 001a 1B78     		ldrb	r3, [r3]
ARM GAS  C:\Users\Adeel\AppData\Local\Temp\ccys3HkN.s 			page 7


  62 001c DBB2     		uxtb	r3, r3
  63 001e 1A1C     		mov	r2, r3
  64 0020 0123     		mov	r3, #1
  65 0022 1340     		and	r3, r2
  66 0024 1FD1     		bne	.L1
 282:.\Generated_Source\PSoC4/BLE_eventHandler.c ****     {
 283:.\Generated_Source\PSoC4/BLE_eventHandler.c ****         if(CYBLE_GATT_ERR_NONE != gattErr)
  67              		.loc 1 283 0
  68 0026 3B1C     		mov	r3, r7
  69 0028 0F33     		add	r3, r3, #15
  70 002a 1B78     		ldrb	r3, [r3]
  71 002c 002B     		cmp	r3, #0
  72 002e 16D0     		beq	.L3
  73              	.LBB2:
 284:.\Generated_Source\PSoC4/BLE_eventHandler.c ****         {
 285:.\Generated_Source\PSoC4/BLE_eventHandler.c ****             CYBLE_GATTS_ERR_PARAM_T err_param;
 286:.\Generated_Source\PSoC4/BLE_eventHandler.c ****             
 287:.\Generated_Source\PSoC4/BLE_eventHandler.c ****             err_param.opcode = (uint8) CYBLE_GATT_WRITE_REQ;
  74              		.loc 1 287 0
  75 0030 3B1C     		mov	r3, r7
  76 0032 0833     		add	r3, r3, #8
  77 0034 1222     		mov	r2, #18
  78 0036 9A70     		strb	r2, [r3, #2]
 288:.\Generated_Source\PSoC4/BLE_eventHandler.c ****             err_param.attrHandle = eventParam->handleValPair.attrHandle;
  79              		.loc 1 288 0
  80 0038 7B68     		ldr	r3, [r7, #4]
  81 003a 9A89     		ldrh	r2, [r3, #12]
  82 003c 3B1C     		mov	r3, r7
  83 003e 0833     		add	r3, r3, #8
  84 0040 1A80     		strh	r2, [r3]
 289:.\Generated_Source\PSoC4/BLE_eventHandler.c ****             err_param.errorCode = gattErr;
  85              		.loc 1 289 0
  86 0042 3B1C     		mov	r3, r7
  87 0044 0833     		add	r3, r3, #8
  88 0046 3A1C     		mov	r2, r7
  89 0048 0F32     		add	r2, r2, #15
  90 004a 1278     		ldrb	r2, [r2]
  91 004c DA70     		strb	r2, [r3, #3]
 290:.\Generated_Source\PSoC4/BLE_eventHandler.c **** 
 291:.\Generated_Source\PSoC4/BLE_eventHandler.c ****             /* Send Error Response */
 292:.\Generated_Source\PSoC4/BLE_eventHandler.c ****             (void)CyBle_GattsErrorRsp(eventParam->connHandle, &err_param);
  92              		.loc 1 292 0
  93 004e 7B68     		ldr	r3, [r7, #4]
  94 0050 3A1C     		mov	r2, r7
  95 0052 0832     		add	r2, r2, #8
  96 0054 1868     		ldr	r0, [r3]
  97 0056 111C     		mov	r1, r2
  98 0058 FFF7FEFF 		bl	CyBle_GattsErrorRsp
  99              	.LBE2:
 100 005c 03E0     		b	.L1
 101              	.L3:
 293:.\Generated_Source\PSoC4/BLE_eventHandler.c ****         }
 294:.\Generated_Source\PSoC4/BLE_eventHandler.c ****         else
 295:.\Generated_Source\PSoC4/BLE_eventHandler.c ****         {
 296:.\Generated_Source\PSoC4/BLE_eventHandler.c ****             (void)CyBle_GattsWriteRsp(eventParam->connHandle);
 102              		.loc 1 296 0
 103 005e 7B68     		ldr	r3, [r7, #4]
ARM GAS  C:\Users\Adeel\AppData\Local\Temp\ccys3HkN.s 			page 8


 104 0060 1868     		ldr	r0, [r3]
 105 0062 FFF7FEFF 		bl	CyBle_GattsWriteRsp
 106              	.L1:
 297:.\Generated_Source\PSoC4/BLE_eventHandler.c ****         }
 298:.\Generated_Source\PSoC4/BLE_eventHandler.c ****     }
 299:.\Generated_Source\PSoC4/BLE_eventHandler.c **** }
 107              		.loc 1 299 0
 108 0066 BD46     		mov	sp, r7
 109 0068 05B0     		add	sp, sp, #20
 110              		@ sp needed
 111 006a 90BD     		pop	{r4, r7, pc}
 112              	.L5:
 113              		.align	2
 114              	.L4:
 115 006c 00000000 		.word	cyBle_eventHandlerFlag
 116              		.cfi_endproc
 117              	.LFE2:
 118              		.size	CyBle_WriteReqHandler, .-CyBle_WriteReqHandler
 119              		.section	.text.CyBle_ValueConfirmation,"ax",%progbits
 120              		.align	2
 121              		.code	16
 122              		.thumb_func
 123              		.type	CyBle_ValueConfirmation, %function
 124              	CyBle_ValueConfirmation:
 125              	.LFB3:
 300:.\Generated_Source\PSoC4/BLE_eventHandler.c **** 
 301:.\Generated_Source\PSoC4/BLE_eventHandler.c **** 
 302:.\Generated_Source\PSoC4/BLE_eventHandler.c **** /****************************************************************************** 
 303:.\Generated_Source\PSoC4/BLE_eventHandler.c **** ##Function Name: CyBle_ValueConfirmation
 304:.\Generated_Source\PSoC4/BLE_eventHandler.c **** *******************************************************************************
 305:.\Generated_Source\PSoC4/BLE_eventHandler.c **** 
 306:.\Generated_Source\PSoC4/BLE_eventHandler.c **** Summary:
 307:.\Generated_Source\PSoC4/BLE_eventHandler.c ****  Handles the Value Confirmation request event from the BLE stack.
 308:.\Generated_Source\PSoC4/BLE_eventHandler.c **** 
 309:.\Generated_Source\PSoC4/BLE_eventHandler.c **** Parameters:
 310:.\Generated_Source\PSoC4/BLE_eventHandler.c ****  CYBLE_CONN_HANDLE_T *eventParam - Pointer to a structure
 311:.\Generated_Source\PSoC4/BLE_eventHandler.c ****     of type 'CYBLE_CONN_HANDLE_T'
 312:.\Generated_Source\PSoC4/BLE_eventHandler.c **** 
 313:.\Generated_Source\PSoC4/BLE_eventHandler.c **** Return:
 314:.\Generated_Source\PSoC4/BLE_eventHandler.c ****  None
 315:.\Generated_Source\PSoC4/BLE_eventHandler.c **** 
 316:.\Generated_Source\PSoC4/BLE_eventHandler.c **** ******************************************************************************/
 317:.\Generated_Source\PSoC4/BLE_eventHandler.c **** static void CyBle_ValueConfirmation(const CYBLE_CONN_HANDLE_T *eventParam)
 318:.\Generated_Source\PSoC4/BLE_eventHandler.c **** {
 126              		.loc 1 318 0
 127              		.cfi_startproc
 128 0000 80B5     		push	{r7, lr}
 129              		.cfi_def_cfa_offset 8
 130              		.cfi_offset 7, -8
 131              		.cfi_offset 14, -4
 132 0002 82B0     		sub	sp, sp, #8
 133              		.cfi_def_cfa_offset 16
 134 0004 00AF     		add	r7, sp, #0
 135              		.cfi_def_cfa_register 7
 136 0006 7860     		str	r0, [r7, #4]
 319:.\Generated_Source\PSoC4/BLE_eventHandler.c ****     if(eventParam != NULL)
 320:.\Generated_Source\PSoC4/BLE_eventHandler.c ****     {
ARM GAS  C:\Users\Adeel\AppData\Local\Temp\ccys3HkN.s 			page 9


 321:.\Generated_Source\PSoC4/BLE_eventHandler.c ****     #if defined(CYBLE_BLS_SERVER)
 322:.\Generated_Source\PSoC4/BLE_eventHandler.c ****         CyBle_BlssConfirmationEventHandler(eventParam);
 323:.\Generated_Source\PSoC4/BLE_eventHandler.c ****     #endif /* defined(CYBLE_BLS_SERVER) */
 324:.\Generated_Source\PSoC4/BLE_eventHandler.c ****     
 325:.\Generated_Source\PSoC4/BLE_eventHandler.c ****     #if defined(CYBLE_CPS_SERVER)
 326:.\Generated_Source\PSoC4/BLE_eventHandler.c ****         if((cyBle_eventHandlerFlag & CYBLE_CALLBACK) != 0u)
 327:.\Generated_Source\PSoC4/BLE_eventHandler.c ****         {
 328:.\Generated_Source\PSoC4/BLE_eventHandler.c ****             CyBle_CpssConfirmationEventHandler(eventParam);
 329:.\Generated_Source\PSoC4/BLE_eventHandler.c ****         }
 330:.\Generated_Source\PSoC4/BLE_eventHandler.c ****     #endif /* defined(CYBLE_CPS_SERVER) */
 331:.\Generated_Source\PSoC4/BLE_eventHandler.c ****     
 332:.\Generated_Source\PSoC4/BLE_eventHandler.c ****     #if defined(CYBLE_CSCS_SERVER)
 333:.\Generated_Source\PSoC4/BLE_eventHandler.c ****         if((cyBle_eventHandlerFlag & CYBLE_CALLBACK) != 0u)
 334:.\Generated_Source\PSoC4/BLE_eventHandler.c ****         {
 335:.\Generated_Source\PSoC4/BLE_eventHandler.c ****             CyBle_CscssConfirmationEventHandler(eventParam);
 336:.\Generated_Source\PSoC4/BLE_eventHandler.c ****         }
 337:.\Generated_Source\PSoC4/BLE_eventHandler.c ****     #endif /* defined(CYBLE_CSCS_SERVER) */
 338:.\Generated_Source\PSoC4/BLE_eventHandler.c ****     
 339:.\Generated_Source\PSoC4/BLE_eventHandler.c ****     #if defined(CYBLE_GLS_SERVER)
 340:.\Generated_Source\PSoC4/BLE_eventHandler.c ****         if((cyBle_eventHandlerFlag & CYBLE_CALLBACK) != 0u)
 341:.\Generated_Source\PSoC4/BLE_eventHandler.c ****         {
 342:.\Generated_Source\PSoC4/BLE_eventHandler.c ****             CyBle_GlssConfirmationEventHandler(eventParam);
 343:.\Generated_Source\PSoC4/BLE_eventHandler.c ****         }
 344:.\Generated_Source\PSoC4/BLE_eventHandler.c ****     #endif /* defined(CYBLE_GLS_SERVER) */
 345:.\Generated_Source\PSoC4/BLE_eventHandler.c ****     
 346:.\Generated_Source\PSoC4/BLE_eventHandler.c ****     #if defined(CYBLE_HTS_SERVER)
 347:.\Generated_Source\PSoC4/BLE_eventHandler.c ****         if((cyBle_eventHandlerFlag & CYBLE_CALLBACK) != 0u)
 348:.\Generated_Source\PSoC4/BLE_eventHandler.c ****         {
 349:.\Generated_Source\PSoC4/BLE_eventHandler.c ****             CyBle_HtssConfirmationEventHandler(eventParam);
 350:.\Generated_Source\PSoC4/BLE_eventHandler.c ****         }
 351:.\Generated_Source\PSoC4/BLE_eventHandler.c ****     #endif /* defined(CYBLE_HTS_SERVER) */
 352:.\Generated_Source\PSoC4/BLE_eventHandler.c **** 
 353:.\Generated_Source\PSoC4/BLE_eventHandler.c ****     #if defined(CYBLE_LNS_SERVER)
 354:.\Generated_Source\PSoC4/BLE_eventHandler.c ****         if((cyBle_eventHandlerFlag & CYBLE_CALLBACK) != 0u)
 355:.\Generated_Source\PSoC4/BLE_eventHandler.c ****         {
 356:.\Generated_Source\PSoC4/BLE_eventHandler.c ****             CyBle_LnssConfirmationEventHandler(eventParam);
 357:.\Generated_Source\PSoC4/BLE_eventHandler.c ****         }
 358:.\Generated_Source\PSoC4/BLE_eventHandler.c ****     #endif /* defined(CYBLE_LNS_SERVER) */
 359:.\Generated_Source\PSoC4/BLE_eventHandler.c ****     
 360:.\Generated_Source\PSoC4/BLE_eventHandler.c ****     #if defined(CYBLE_RSCS_SERVER)
 361:.\Generated_Source\PSoC4/BLE_eventHandler.c ****         if((cyBle_eventHandlerFlag & CYBLE_CALLBACK) != 0u)
 362:.\Generated_Source\PSoC4/BLE_eventHandler.c ****         {
 363:.\Generated_Source\PSoC4/BLE_eventHandler.c ****             CyBle_RscssConfirmationEventHandler(eventParam);
 364:.\Generated_Source\PSoC4/BLE_eventHandler.c ****         }
 365:.\Generated_Source\PSoC4/BLE_eventHandler.c ****     #endif /* defined(CYBLE_RSCS_SERVER) */
 366:.\Generated_Source\PSoC4/BLE_eventHandler.c ****     }
 367:.\Generated_Source\PSoC4/BLE_eventHandler.c **** }
 137              		.loc 1 367 0
 138 0008 BD46     		mov	sp, r7
 139 000a 02B0     		add	sp, sp, #8
 140              		@ sp needed
 141 000c 80BD     		pop	{r7, pc}
 142              		.cfi_endproc
 143              	.LFE3:
 144              		.size	CyBle_ValueConfirmation, .-CyBle_ValueConfirmation
 145              		.section	.text.CyBle_GattDisconnectEventHandler,"ax",%progbits
 146              		.align	2
ARM GAS  C:\Users\Adeel\AppData\Local\Temp\ccys3HkN.s 			page 10


 147              		.code	16
 148              		.thumb_func
 149              		.type	CyBle_GattDisconnectEventHandler, %function
 150              	CyBle_GattDisconnectEventHandler:
 151              	.LFB4:
 368:.\Generated_Source\PSoC4/BLE_eventHandler.c **** 
 369:.\Generated_Source\PSoC4/BLE_eventHandler.c **** #endif /* (CYBLE_GATT_ROLE_SERVER) */
 370:.\Generated_Source\PSoC4/BLE_eventHandler.c **** 
 371:.\Generated_Source\PSoC4/BLE_eventHandler.c **** 
 372:.\Generated_Source\PSoC4/BLE_eventHandler.c **** #if (CYBLE_GATT_ROLE_CLIENT)
 373:.\Generated_Source\PSoC4/BLE_eventHandler.c **** 
 374:.\Generated_Source\PSoC4/BLE_eventHandler.c **** /****************************************************************************** 
 375:.\Generated_Source\PSoC4/BLE_eventHandler.c **** ##Function Name: CyBle_GattcWriteResponseEventHandler
 376:.\Generated_Source\PSoC4/BLE_eventHandler.c **** *******************************************************************************
 377:.\Generated_Source\PSoC4/BLE_eventHandler.c **** 
 378:.\Generated_Source\PSoC4/BLE_eventHandler.c **** Summary:
 379:.\Generated_Source\PSoC4/BLE_eventHandler.c ****  Handles the Write response event from the BLE stack.
 380:.\Generated_Source\PSoC4/BLE_eventHandler.c **** 
 381:.\Generated_Source\PSoC4/BLE_eventHandler.c **** Parameters:
 382:.\Generated_Source\PSoC4/BLE_eventHandler.c ****  CYBLE_CONN_HANDLE_T *eventParam - Pointer to a structure
 383:.\Generated_Source\PSoC4/BLE_eventHandler.c ****     of type 'CYBLE_CONN_HANDLE_T'
 384:.\Generated_Source\PSoC4/BLE_eventHandler.c **** 
 385:.\Generated_Source\PSoC4/BLE_eventHandler.c **** Return:
 386:.\Generated_Source\PSoC4/BLE_eventHandler.c ****  None
 387:.\Generated_Source\PSoC4/BLE_eventHandler.c **** 
 388:.\Generated_Source\PSoC4/BLE_eventHandler.c **** ******************************************************************************/
 389:.\Generated_Source\PSoC4/BLE_eventHandler.c **** static void CyBle_GattcWriteResponseEventHandler(const CYBLE_CONN_HANDLE_T *eventParam)
 390:.\Generated_Source\PSoC4/BLE_eventHandler.c **** {
 391:.\Generated_Source\PSoC4/BLE_eventHandler.c **** #ifdef CYBLE_ANS_CLIENT
 392:.\Generated_Source\PSoC4/BLE_eventHandler.c ****     CyBle_AnscWriteResponseEventHandler(eventParam);
 393:.\Generated_Source\PSoC4/BLE_eventHandler.c **** #endif /* CYBLE_ANS_CLIENT */
 394:.\Generated_Source\PSoC4/BLE_eventHandler.c **** 
 395:.\Generated_Source\PSoC4/BLE_eventHandler.c **** #ifdef CYBLE_BAS_CLIENT
 396:.\Generated_Source\PSoC4/BLE_eventHandler.c ****     if((cyBle_eventHandlerFlag & CYBLE_CALLBACK) != 0u)
 397:.\Generated_Source\PSoC4/BLE_eventHandler.c ****     {
 398:.\Generated_Source\PSoC4/BLE_eventHandler.c ****         CyBle_BascWriteResponseEventHandler(eventParam);
 399:.\Generated_Source\PSoC4/BLE_eventHandler.c ****     }
 400:.\Generated_Source\PSoC4/BLE_eventHandler.c **** #endif /* CYBLE_BAS_CLIENT */
 401:.\Generated_Source\PSoC4/BLE_eventHandler.c **** 
 402:.\Generated_Source\PSoC4/BLE_eventHandler.c **** #ifdef CYBLE_BLS_CLIENT
 403:.\Generated_Source\PSoC4/BLE_eventHandler.c ****     if((cyBle_eventHandlerFlag & CYBLE_CALLBACK) != 0u)
 404:.\Generated_Source\PSoC4/BLE_eventHandler.c ****     {
 405:.\Generated_Source\PSoC4/BLE_eventHandler.c ****         CyBle_BlscWriteResponseEventHandler(eventParam);
 406:.\Generated_Source\PSoC4/BLE_eventHandler.c ****     }
 407:.\Generated_Source\PSoC4/BLE_eventHandler.c **** #endif /* CYBLE_BLS_CLIENT */
 408:.\Generated_Source\PSoC4/BLE_eventHandler.c **** 
 409:.\Generated_Source\PSoC4/BLE_eventHandler.c **** #ifdef CYBLE_CPS_CLIENT
 410:.\Generated_Source\PSoC4/BLE_eventHandler.c ****     if((cyBle_eventHandlerFlag & CYBLE_CALLBACK) != 0u)
 411:.\Generated_Source\PSoC4/BLE_eventHandler.c ****     {
 412:.\Generated_Source\PSoC4/BLE_eventHandler.c ****         CyBle_CpscWriteResponseEventHandler(eventParam);
 413:.\Generated_Source\PSoC4/BLE_eventHandler.c ****     }
 414:.\Generated_Source\PSoC4/BLE_eventHandler.c **** #endif /* CYBLE_CPS_CLIENT */
 415:.\Generated_Source\PSoC4/BLE_eventHandler.c **** 
 416:.\Generated_Source\PSoC4/BLE_eventHandler.c **** #ifdef CYBLE_CSCS_CLIENT
 417:.\Generated_Source\PSoC4/BLE_eventHandler.c ****     if((cyBle_eventHandlerFlag & CYBLE_CALLBACK) != 0u)
 418:.\Generated_Source\PSoC4/BLE_eventHandler.c ****     {
 419:.\Generated_Source\PSoC4/BLE_eventHandler.c ****         CyBle_CscscWriteResponseEventHandler(eventParam);
ARM GAS  C:\Users\Adeel\AppData\Local\Temp\ccys3HkN.s 			page 11


 420:.\Generated_Source\PSoC4/BLE_eventHandler.c ****     }
 421:.\Generated_Source\PSoC4/BLE_eventHandler.c **** #endif /* CYBLE_CSCS_CLIENT */
 422:.\Generated_Source\PSoC4/BLE_eventHandler.c **** 
 423:.\Generated_Source\PSoC4/BLE_eventHandler.c **** #ifdef CYBLE_CTS_CLIENT
 424:.\Generated_Source\PSoC4/BLE_eventHandler.c ****     if((cyBle_eventHandlerFlag & CYBLE_CALLBACK) != 0u)
 425:.\Generated_Source\PSoC4/BLE_eventHandler.c ****     {
 426:.\Generated_Source\PSoC4/BLE_eventHandler.c ****         CyBle_CtscWriteResponseEventHandler(eventParam);
 427:.\Generated_Source\PSoC4/BLE_eventHandler.c ****     }
 428:.\Generated_Source\PSoC4/BLE_eventHandler.c **** #endif /* CYBLE_CTS_CLIENT */
 429:.\Generated_Source\PSoC4/BLE_eventHandler.c **** 
 430:.\Generated_Source\PSoC4/BLE_eventHandler.c **** #ifdef CYBLE_GLS_CLIENT
 431:.\Generated_Source\PSoC4/BLE_eventHandler.c ****     if((cyBle_eventHandlerFlag & CYBLE_CALLBACK) != 0u)
 432:.\Generated_Source\PSoC4/BLE_eventHandler.c ****     {
 433:.\Generated_Source\PSoC4/BLE_eventHandler.c ****         CyBle_GlscWriteResponseEventHandler(eventParam);
 434:.\Generated_Source\PSoC4/BLE_eventHandler.c ****     }
 435:.\Generated_Source\PSoC4/BLE_eventHandler.c **** #endif /* CYBLE_GLS_CLIENT */
 436:.\Generated_Source\PSoC4/BLE_eventHandler.c **** 
 437:.\Generated_Source\PSoC4/BLE_eventHandler.c **** #ifdef CYBLE_HIDS_CLIENT
 438:.\Generated_Source\PSoC4/BLE_eventHandler.c ****     if((cyBle_eventHandlerFlag & CYBLE_CALLBACK) != 0u)
 439:.\Generated_Source\PSoC4/BLE_eventHandler.c ****     {
 440:.\Generated_Source\PSoC4/BLE_eventHandler.c ****         CyBle_HidscWriteResponseEventHandler(eventParam);
 441:.\Generated_Source\PSoC4/BLE_eventHandler.c ****     }
 442:.\Generated_Source\PSoC4/BLE_eventHandler.c **** #endif /* CYBLE_HIDS_CLIENT */
 443:.\Generated_Source\PSoC4/BLE_eventHandler.c **** 
 444:.\Generated_Source\PSoC4/BLE_eventHandler.c **** #ifdef CYBLE_HRS_CLIENT
 445:.\Generated_Source\PSoC4/BLE_eventHandler.c ****     if((cyBle_eventHandlerFlag & CYBLE_CALLBACK) != 0u)
 446:.\Generated_Source\PSoC4/BLE_eventHandler.c ****     {
 447:.\Generated_Source\PSoC4/BLE_eventHandler.c ****         CyBle_HrscWriteResponseEventHandler(eventParam);
 448:.\Generated_Source\PSoC4/BLE_eventHandler.c ****     }
 449:.\Generated_Source\PSoC4/BLE_eventHandler.c **** #endif /* CYBLE_HRS_CLIENT */
 450:.\Generated_Source\PSoC4/BLE_eventHandler.c **** 
 451:.\Generated_Source\PSoC4/BLE_eventHandler.c **** #ifdef CYBLE_HTS_CLIENT
 452:.\Generated_Source\PSoC4/BLE_eventHandler.c ****     if((cyBle_eventHandlerFlag & CYBLE_CALLBACK) != 0u)
 453:.\Generated_Source\PSoC4/BLE_eventHandler.c ****     {
 454:.\Generated_Source\PSoC4/BLE_eventHandler.c ****         CyBle_HtscWriteResponseEventHandler(eventParam);
 455:.\Generated_Source\PSoC4/BLE_eventHandler.c ****     }
 456:.\Generated_Source\PSoC4/BLE_eventHandler.c **** #endif /* CYBLE_HTS_CLIENT */
 457:.\Generated_Source\PSoC4/BLE_eventHandler.c **** 
 458:.\Generated_Source\PSoC4/BLE_eventHandler.c **** #ifdef CYBLE_LLS_CLIENT
 459:.\Generated_Source\PSoC4/BLE_eventHandler.c ****     if((cyBle_eventHandlerFlag & CYBLE_CALLBACK) != 0u)
 460:.\Generated_Source\PSoC4/BLE_eventHandler.c ****     {
 461:.\Generated_Source\PSoC4/BLE_eventHandler.c ****         CyBle_LlscWriteResponseEventHandler(eventParam);
 462:.\Generated_Source\PSoC4/BLE_eventHandler.c ****     }
 463:.\Generated_Source\PSoC4/BLE_eventHandler.c **** #endif /* CYBLE_LLS_CLIENT */
 464:.\Generated_Source\PSoC4/BLE_eventHandler.c **** 
 465:.\Generated_Source\PSoC4/BLE_eventHandler.c **** #ifdef CYBLE_LNS_CLIENT
 466:.\Generated_Source\PSoC4/BLE_eventHandler.c ****     if((cyBle_eventHandlerFlag & CYBLE_CALLBACK) != 0u)
 467:.\Generated_Source\PSoC4/BLE_eventHandler.c ****     {
 468:.\Generated_Source\PSoC4/BLE_eventHandler.c ****         CyBle_LnscWriteResponseEventHandler(eventParam);
 469:.\Generated_Source\PSoC4/BLE_eventHandler.c ****     }
 470:.\Generated_Source\PSoC4/BLE_eventHandler.c **** #endif /* CYBLE_LNS_CLIENT */
 471:.\Generated_Source\PSoC4/BLE_eventHandler.c **** 
 472:.\Generated_Source\PSoC4/BLE_eventHandler.c **** #ifdef CYBLE_PASS_CLIENT
 473:.\Generated_Source\PSoC4/BLE_eventHandler.c ****     if((cyBle_eventHandlerFlag & CYBLE_CALLBACK) != 0u)
 474:.\Generated_Source\PSoC4/BLE_eventHandler.c ****     {
 475:.\Generated_Source\PSoC4/BLE_eventHandler.c ****         CyBle_PasscWriteResponseEventHandler(eventParam);
 476:.\Generated_Source\PSoC4/BLE_eventHandler.c ****     }
ARM GAS  C:\Users\Adeel\AppData\Local\Temp\ccys3HkN.s 			page 12


 477:.\Generated_Source\PSoC4/BLE_eventHandler.c **** #endif /* CYBLE_PASS_CLIENT */
 478:.\Generated_Source\PSoC4/BLE_eventHandler.c **** 
 479:.\Generated_Source\PSoC4/BLE_eventHandler.c **** #ifdef CYBLE_RSCS_CLIENT
 480:.\Generated_Source\PSoC4/BLE_eventHandler.c ****     if((cyBle_eventHandlerFlag & CYBLE_CALLBACK) != 0u)
 481:.\Generated_Source\PSoC4/BLE_eventHandler.c ****     {
 482:.\Generated_Source\PSoC4/BLE_eventHandler.c ****         CyBle_RscscWriteResponseEventHandler(eventParam);
 483:.\Generated_Source\PSoC4/BLE_eventHandler.c ****     }
 484:.\Generated_Source\PSoC4/BLE_eventHandler.c **** #endif /* CYBLE_RSCS_CLIENT */
 485:.\Generated_Source\PSoC4/BLE_eventHandler.c **** 
 486:.\Generated_Source\PSoC4/BLE_eventHandler.c **** #ifdef CYBLE_SCPS_CLIENT
 487:.\Generated_Source\PSoC4/BLE_eventHandler.c ****     if((cyBle_eventHandlerFlag & CYBLE_CALLBACK) != 0u)
 488:.\Generated_Source\PSoC4/BLE_eventHandler.c ****     {
 489:.\Generated_Source\PSoC4/BLE_eventHandler.c ****         CyBle_ScpscWriteResponseEventHandler(eventParam);
 490:.\Generated_Source\PSoC4/BLE_eventHandler.c ****     }
 491:.\Generated_Source\PSoC4/BLE_eventHandler.c **** #endif /* CYBLE_SCPS_CLIENT */
 492:.\Generated_Source\PSoC4/BLE_eventHandler.c **** 
 493:.\Generated_Source\PSoC4/BLE_eventHandler.c **** #ifdef CYBLE_TPS_CLIENT
 494:.\Generated_Source\PSoC4/BLE_eventHandler.c ****     if((cyBle_eventHandlerFlag & CYBLE_CALLBACK) != 0u)
 495:.\Generated_Source\PSoC4/BLE_eventHandler.c ****     {
 496:.\Generated_Source\PSoC4/BLE_eventHandler.c ****         CyBle_TpscWriteResponseEventHandler(eventParam);
 497:.\Generated_Source\PSoC4/BLE_eventHandler.c ****     }
 498:.\Generated_Source\PSoC4/BLE_eventHandler.c **** #endif /* CYBLE_TPS_CLIENT */
 499:.\Generated_Source\PSoC4/BLE_eventHandler.c **** }
 500:.\Generated_Source\PSoC4/BLE_eventHandler.c **** #endif /* (CYBLE_GATT_ROLE_CLIENT) */
 501:.\Generated_Source\PSoC4/BLE_eventHandler.c **** 
 502:.\Generated_Source\PSoC4/BLE_eventHandler.c **** 
 503:.\Generated_Source\PSoC4/BLE_eventHandler.c **** /****************************************************************************** 
 504:.\Generated_Source\PSoC4/BLE_eventHandler.c **** ##Function Name: CyBle_DisconnectEventHandler
 505:.\Generated_Source\PSoC4/BLE_eventHandler.c **** *******************************************************************************
 506:.\Generated_Source\PSoC4/BLE_eventHandler.c **** 
 507:.\Generated_Source\PSoC4/BLE_eventHandler.c **** Summary:
 508:.\Generated_Source\PSoC4/BLE_eventHandler.c ****  Handles the GATT Disconnection event from the BLE stack.
 509:.\Generated_Source\PSoC4/BLE_eventHandler.c **** 
 510:.\Generated_Source\PSoC4/BLE_eventHandler.c **** Parameters:
 511:.\Generated_Source\PSoC4/BLE_eventHandler.c ****  None
 512:.\Generated_Source\PSoC4/BLE_eventHandler.c **** 
 513:.\Generated_Source\PSoC4/BLE_eventHandler.c **** Return:
 514:.\Generated_Source\PSoC4/BLE_eventHandler.c ****  None
 515:.\Generated_Source\PSoC4/BLE_eventHandler.c **** 
 516:.\Generated_Source\PSoC4/BLE_eventHandler.c **** ******************************************************************************/
 517:.\Generated_Source\PSoC4/BLE_eventHandler.c **** static void CyBle_GattDisconnectEventHandler(void)
 518:.\Generated_Source\PSoC4/BLE_eventHandler.c **** {
 152              		.loc 1 518 0
 153              		.cfi_startproc
 154 0000 80B5     		push	{r7, lr}
 155              		.cfi_def_cfa_offset 8
 156              		.cfi_offset 7, -8
 157              		.cfi_offset 14, -4
 158 0002 00AF     		add	r7, sp, #0
 159              		.cfi_def_cfa_register 7
 519:.\Generated_Source\PSoC4/BLE_eventHandler.c ****     cyBle_connHandle.attId = 0u;
 160              		.loc 1 519 0
 161 0004 034B     		ldr	r3, .L8
 162 0006 0022     		mov	r2, #0
 163 0008 5A70     		strb	r2, [r3, #1]
 520:.\Generated_Source\PSoC4/BLE_eventHandler.c ****     cyBle_connHandle.bdHandle = 0u;
 164              		.loc 1 520 0
ARM GAS  C:\Users\Adeel\AppData\Local\Temp\ccys3HkN.s 			page 13


 165 000a 024B     		ldr	r3, .L8
 166 000c 0022     		mov	r2, #0
 167 000e 1A70     		strb	r2, [r3]
 521:.\Generated_Source\PSoC4/BLE_eventHandler.c ****     
 522:.\Generated_Source\PSoC4/BLE_eventHandler.c ****     #if (CYBLE_GATT_ROLE_CLIENT)
 523:.\Generated_Source\PSoC4/BLE_eventHandler.c ****         if(CYBLE_CLIENT_STATE_DISCOVERED == CyBle_GetClientState())
 524:.\Generated_Source\PSoC4/BLE_eventHandler.c ****         {
 525:.\Generated_Source\PSoC4/BLE_eventHandler.c ****             CyBle_SetClientState(CYBLE_CLIENT_STATE_DISCONNECTED_DISCOVERED);
 526:.\Generated_Source\PSoC4/BLE_eventHandler.c ****         }
 527:.\Generated_Source\PSoC4/BLE_eventHandler.c ****         else
 528:.\Generated_Source\PSoC4/BLE_eventHandler.c ****         {
 529:.\Generated_Source\PSoC4/BLE_eventHandler.c ****             CyBle_SetClientState(CYBLE_CLIENT_STATE_DISCONNECTED);
 530:.\Generated_Source\PSoC4/BLE_eventHandler.c ****         }
 531:.\Generated_Source\PSoC4/BLE_eventHandler.c ****     #endif /* CYBLE_GATT_ROLE_CLIENT */
 532:.\Generated_Source\PSoC4/BLE_eventHandler.c ****         
 533:.\Generated_Source\PSoC4/BLE_eventHandler.c ****     #ifdef CYBLE_CPS_SERVER
 534:.\Generated_Source\PSoC4/BLE_eventHandler.c ****         #if CYBLE_GAP_ROLE_BROADCASTER
 535:.\Generated_Source\PSoC4/BLE_eventHandler.c ****             CyBle_CpssDisconnectEventHandler();
 536:.\Generated_Source\PSoC4/BLE_eventHandler.c ****         #endif /* CYBLE_GAP_ROLE_BROADCASTER */
 537:.\Generated_Source\PSoC4/BLE_eventHandler.c ****     #endif /* CYBLE_CPS_SERVER */
 538:.\Generated_Source\PSoC4/BLE_eventHandler.c **** 
 539:.\Generated_Source\PSoC4/BLE_eventHandler.c ****     #ifdef CYBLE_CPS_CLIENT
 540:.\Generated_Source\PSoC4/BLE_eventHandler.c ****         CyBle_CpscDisconnectEventHandler();
 541:.\Generated_Source\PSoC4/BLE_eventHandler.c ****     #endif /* CYBLE_CPS_CLIENT */
 542:.\Generated_Source\PSoC4/BLE_eventHandler.c **** 
 543:.\Generated_Source\PSoC4/BLE_eventHandler.c ****     #ifdef CYBLE_IAS_SERVER
 544:.\Generated_Source\PSoC4/BLE_eventHandler.c ****         CyBle_IassDisconnectEventHandler();
 545:.\Generated_Source\PSoC4/BLE_eventHandler.c ****     #endif /* CYBLE_IAS_SERVER */
 546:.\Generated_Source\PSoC4/BLE_eventHandler.c ****     
 547:.\Generated_Source\PSoC4/BLE_eventHandler.c ****     #ifdef CYBLE_GLS_SERVER
 548:.\Generated_Source\PSoC4/BLE_eventHandler.c ****         CyBle_GlsInit();
 549:.\Generated_Source\PSoC4/BLE_eventHandler.c ****     #endif /* CYBLE_GLS_SERVER */
 550:.\Generated_Source\PSoC4/BLE_eventHandler.c ****     
 551:.\Generated_Source\PSoC4/BLE_eventHandler.c ****     #ifdef CYBLE_LNS_SERVER
 552:.\Generated_Source\PSoC4/BLE_eventHandler.c ****         CyBle_LnsInit();
 553:.\Generated_Source\PSoC4/BLE_eventHandler.c ****     #endif /* CYBLE_LNS_SERVER */
 554:.\Generated_Source\PSoC4/BLE_eventHandler.c **** }
 168              		.loc 1 554 0
 169 0010 BD46     		mov	sp, r7
 170              		@ sp needed
 171 0012 80BD     		pop	{r7, pc}
 172              	.L9:
 173              		.align	2
 174              	.L8:
 175 0014 00000000 		.word	cyBle_connHandle
 176              		.cfi_endproc
 177              	.LFE4:
 178              		.size	CyBle_GattDisconnectEventHandler, .-CyBle_GattDisconnectEventHandler
 179              		.section	.text.CyBle_TimeOutEventHandler,"ax",%progbits
 180              		.align	2
 181              		.code	16
 182              		.thumb_func
 183              		.type	CyBle_TimeOutEventHandler, %function
 184              	CyBle_TimeOutEventHandler:
 185              	.LFB5:
 555:.\Generated_Source\PSoC4/BLE_eventHandler.c **** 
 556:.\Generated_Source\PSoC4/BLE_eventHandler.c **** 
ARM GAS  C:\Users\Adeel\AppData\Local\Temp\ccys3HkN.s 			page 14


 557:.\Generated_Source\PSoC4/BLE_eventHandler.c **** /****************************************************************************** 
 558:.\Generated_Source\PSoC4/BLE_eventHandler.c **** ##Function Name: CyBle_TimeOutEventHandler
 559:.\Generated_Source\PSoC4/BLE_eventHandler.c **** *******************************************************************************
 560:.\Generated_Source\PSoC4/BLE_eventHandler.c **** 
 561:.\Generated_Source\PSoC4/BLE_eventHandler.c **** Summary:
 562:.\Generated_Source\PSoC4/BLE_eventHandler.c ****  Handles the CYBLE_EVT_TIMEOUT event from the BLE stack.
 563:.\Generated_Source\PSoC4/BLE_eventHandler.c **** 
 564:.\Generated_Source\PSoC4/BLE_eventHandler.c **** Parameters:
 565:.\Generated_Source\PSoC4/BLE_eventHandler.c ****  *eventParam - The pointer to a structure of type CYBLE_TO_REASON_CODE_T.
 566:.\Generated_Source\PSoC4/BLE_eventHandler.c **** 
 567:.\Generated_Source\PSoC4/BLE_eventHandler.c **** Return:
 568:.\Generated_Source\PSoC4/BLE_eventHandler.c ****  None
 569:.\Generated_Source\PSoC4/BLE_eventHandler.c **** 
 570:.\Generated_Source\PSoC4/BLE_eventHandler.c **** ******************************************************************************/
 571:.\Generated_Source\PSoC4/BLE_eventHandler.c **** static void CyBle_TimeOutEventHandler(const CYBLE_TO_REASON_CODE_T *eventParam)
 572:.\Generated_Source\PSoC4/BLE_eventHandler.c **** {
 186              		.loc 1 572 0
 187              		.cfi_startproc
 188 0000 80B5     		push	{r7, lr}
 189              		.cfi_def_cfa_offset 8
 190              		.cfi_offset 7, -8
 191              		.cfi_offset 14, -4
 192 0002 82B0     		sub	sp, sp, #8
 193              		.cfi_def_cfa_offset 16
 194 0004 00AF     		add	r7, sp, #0
 195              		.cfi_def_cfa_register 7
 196 0006 7860     		str	r0, [r7, #4]
 573:.\Generated_Source\PSoC4/BLE_eventHandler.c ****     if(*eventParam == CYBLE_GATT_RSP_TO)
 574:.\Generated_Source\PSoC4/BLE_eventHandler.c ****     {
 575:.\Generated_Source\PSoC4/BLE_eventHandler.c ****     #if (CYBLE_GATT_ROLE_CLIENT)
 576:.\Generated_Source\PSoC4/BLE_eventHandler.c ****         if(0u != (cyBle_eventHandlerFlag & CYBLE_AUTO_DISCOVERY))
 577:.\Generated_Source\PSoC4/BLE_eventHandler.c ****         {
 578:.\Generated_Source\PSoC4/BLE_eventHandler.c ****             switch(CyBle_GetClientState())
 579:.\Generated_Source\PSoC4/BLE_eventHandler.c ****             {
 580:.\Generated_Source\PSoC4/BLE_eventHandler.c ****                 case CYBLE_CLIENT_STATE_SRVC_DISCOVERING:
 581:.\Generated_Source\PSoC4/BLE_eventHandler.c ****                     CyBle_ApplCallback(CYBLE_EVT_GATTC_SRVC_DISCOVERY_FAILED, NULL);
 582:.\Generated_Source\PSoC4/BLE_eventHandler.c ****                     break;
 583:.\Generated_Source\PSoC4/BLE_eventHandler.c ****                 case CYBLE_CLIENT_STATE_INCL_DISCOVERING:
 584:.\Generated_Source\PSoC4/BLE_eventHandler.c ****                     CyBle_ApplCallback(CYBLE_EVT_GATTC_INCL_DISCOVERY_FAILED, NULL);
 585:.\Generated_Source\PSoC4/BLE_eventHandler.c ****                     break;
 586:.\Generated_Source\PSoC4/BLE_eventHandler.c ****                 case CYBLE_CLIENT_STATE_CHAR_DISCOVERING:
 587:.\Generated_Source\PSoC4/BLE_eventHandler.c ****                     CyBle_ApplCallback(CYBLE_EVT_GATTC_CHAR_DISCOVERY_FAILED, NULL);
 588:.\Generated_Source\PSoC4/BLE_eventHandler.c ****                     break;
 589:.\Generated_Source\PSoC4/BLE_eventHandler.c ****                 case CYBLE_CLIENT_STATE_DESCR_DISCOVERING:
 590:.\Generated_Source\PSoC4/BLE_eventHandler.c ****                     CyBle_ApplCallback(CYBLE_EVT_GATTC_DESCR_DISCOVERY_FAILED, NULL);
 591:.\Generated_Source\PSoC4/BLE_eventHandler.c ****                     break;
 592:.\Generated_Source\PSoC4/BLE_eventHandler.c ****                 default:        /* Other states should not be set in Auto discovery mode */
 593:.\Generated_Source\PSoC4/BLE_eventHandler.c ****                     break;
 594:.\Generated_Source\PSoC4/BLE_eventHandler.c ****             }
 595:.\Generated_Source\PSoC4/BLE_eventHandler.c ****             cyBle_eventHandlerFlag &= (uint8)~CYBLE_AUTO_DISCOVERY;
 596:.\Generated_Source\PSoC4/BLE_eventHandler.c ****             CyBle_SetClientState(CYBLE_CLIENT_STATE_CONNECTED);
 597:.\Generated_Source\PSoC4/BLE_eventHandler.c ****         }
 598:.\Generated_Source\PSoC4/BLE_eventHandler.c ****     #endif /* CYBLE_GATT_ROLE_CLIENT */
 599:.\Generated_Source\PSoC4/BLE_eventHandler.c ****     #ifdef CYBLE_CPS_SERVER
 600:.\Generated_Source\PSoC4/BLE_eventHandler.c ****         CyBle_CpssTimeOutEventHandler();
 601:.\Generated_Source\PSoC4/BLE_eventHandler.c ****     #endif /* CYBLE_CPS_SERVER */
 602:.\Generated_Source\PSoC4/BLE_eventHandler.c ****     }
ARM GAS  C:\Users\Adeel\AppData\Local\Temp\ccys3HkN.s 			page 15


 603:.\Generated_Source\PSoC4/BLE_eventHandler.c ****     
 604:.\Generated_Source\PSoC4/BLE_eventHandler.c ****     /* Connection procedure timeout */
 605:.\Generated_Source\PSoC4/BLE_eventHandler.c ****     if(*eventParam == CYBLE_GENERIC_TO)
 606:.\Generated_Source\PSoC4/BLE_eventHandler.c ****     {
 607:.\Generated_Source\PSoC4/BLE_eventHandler.c ****     #if(CYBLE_GAP_ROLE_CENTRAL)
 608:.\Generated_Source\PSoC4/BLE_eventHandler.c ****         if(CYBLE_STATE_CONNECTING == CyBle_GetState())
 609:.\Generated_Source\PSoC4/BLE_eventHandler.c ****         {
 610:.\Generated_Source\PSoC4/BLE_eventHandler.c ****             (void)CyBle_GapcCancelDeviceConnection();
 611:.\Generated_Source\PSoC4/BLE_eventHandler.c ****         }
 612:.\Generated_Source\PSoC4/BLE_eventHandler.c ****     #endif /* CYBLE_GAP_ROLE_CENTRAL */
 613:.\Generated_Source\PSoC4/BLE_eventHandler.c ****     }
 614:.\Generated_Source\PSoC4/BLE_eventHandler.c **** }
 197              		.loc 1 614 0
 198 0008 BD46     		mov	sp, r7
 199 000a 02B0     		add	sp, sp, #8
 200              		@ sp needed
 201 000c 80BD     		pop	{r7, pc}
 202              		.cfi_endproc
 203              	.LFE5:
 204              		.size	CyBle_TimeOutEventHandler, .-CyBle_TimeOutEventHandler
 205              		.section	.text.CyBle_GattConnectReqHandler,"ax",%progbits
 206              		.align	2
 207              		.code	16
 208              		.thumb_func
 209              		.type	CyBle_GattConnectReqHandler, %function
 210              	CyBle_GattConnectReqHandler:
 211              	.LFB6:
 615:.\Generated_Source\PSoC4/BLE_eventHandler.c **** 
 616:.\Generated_Source\PSoC4/BLE_eventHandler.c **** 
 617:.\Generated_Source\PSoC4/BLE_eventHandler.c **** /****************************************************************************** 
 618:.\Generated_Source\PSoC4/BLE_eventHandler.c **** ##Function Name: CyBle_GattConnectReqHandler
 619:.\Generated_Source\PSoC4/BLE_eventHandler.c **** *******************************************************************************
 620:.\Generated_Source\PSoC4/BLE_eventHandler.c **** 
 621:.\Generated_Source\PSoC4/BLE_eventHandler.c **** Summary:
 622:.\Generated_Source\PSoC4/BLE_eventHandler.c ****  Handles the GATT connect event from the BLE stack.
 623:.\Generated_Source\PSoC4/BLE_eventHandler.c **** 
 624:.\Generated_Source\PSoC4/BLE_eventHandler.c **** Parameters:
 625:.\Generated_Source\PSoC4/BLE_eventHandler.c ****  None
 626:.\Generated_Source\PSoC4/BLE_eventHandler.c **** 
 627:.\Generated_Source\PSoC4/BLE_eventHandler.c **** Return:
 628:.\Generated_Source\PSoC4/BLE_eventHandler.c ****  None
 629:.\Generated_Source\PSoC4/BLE_eventHandler.c **** 
 630:.\Generated_Source\PSoC4/BLE_eventHandler.c **** ******************************************************************************/
 631:.\Generated_Source\PSoC4/BLE_eventHandler.c **** static void CyBle_GattConnectReqHandler(void)
 632:.\Generated_Source\PSoC4/BLE_eventHandler.c **** {
 212              		.loc 1 632 0
 213              		.cfi_startproc
 214 0000 80B5     		push	{r7, lr}
 215              		.cfi_def_cfa_offset 8
 216              		.cfi_offset 7, -8
 217              		.cfi_offset 14, -4
 218 0002 00AF     		add	r7, sp, #0
 219              		.cfi_def_cfa_register 7
 633:.\Generated_Source\PSoC4/BLE_eventHandler.c ****     #ifdef CYBLE_CPS_SERVER
 634:.\Generated_Source\PSoC4/BLE_eventHandler.c ****         CyBle_CpssConnectEventHandler();
 635:.\Generated_Source\PSoC4/BLE_eventHandler.c ****     #endif /* CYBLE_CPS_SERVER */
 636:.\Generated_Source\PSoC4/BLE_eventHandler.c ****     
ARM GAS  C:\Users\Adeel\AppData\Local\Temp\ccys3HkN.s 			page 16


 637:.\Generated_Source\PSoC4/BLE_eventHandler.c ****     #ifdef CYBLE_CSCS_SERVER
 638:.\Generated_Source\PSoC4/BLE_eventHandler.c ****             CyBle_CscsInit();
 639:.\Generated_Source\PSoC4/BLE_eventHandler.c ****     #endif /* CYBLE_CSCS_SERVER */
 640:.\Generated_Source\PSoC4/BLE_eventHandler.c ****     
 641:.\Generated_Source\PSoC4/BLE_eventHandler.c ****     #ifdef CYBLE_LLS_SERVER
 642:.\Generated_Source\PSoC4/BLE_eventHandler.c ****         CyBle_LlssConnectEventHandler();
 643:.\Generated_Source\PSoC4/BLE_eventHandler.c ****     #endif /* CYBLE_LLS_SERVER */
 644:.\Generated_Source\PSoC4/BLE_eventHandler.c ****     
 645:.\Generated_Source\PSoC4/BLE_eventHandler.c ****     #ifdef CYBLE_HIDS_SERVER
 646:.\Generated_Source\PSoC4/BLE_eventHandler.c ****         CyBle_HidssOnDeviceConnected();
 647:.\Generated_Source\PSoC4/BLE_eventHandler.c ****     #endif /* CYBLE_HIDS_SERVER */
 648:.\Generated_Source\PSoC4/BLE_eventHandler.c **** 
 649:.\Generated_Source\PSoC4/BLE_eventHandler.c ****     #ifdef CYBLE_RSCS_SERVER
 650:.\Generated_Source\PSoC4/BLE_eventHandler.c ****             CyBle_RscsInit();
 651:.\Generated_Source\PSoC4/BLE_eventHandler.c ****     #endif /* CYBLE_RSCS_SERVER */
 652:.\Generated_Source\PSoC4/BLE_eventHandler.c **** }
 220              		.loc 1 652 0
 221 0004 BD46     		mov	sp, r7
 222              		@ sp needed
 223 0006 80BD     		pop	{r7, pc}
 224              		.cfi_endproc
 225              	.LFE6:
 226              		.size	CyBle_GattConnectReqHandler, .-CyBle_GattConnectReqHandler
 227              		.section	.text.CyBle_IsDeviceAddressValid,"ax",%progbits
 228              		.align	2
 229              		.code	16
 230              		.thumb_func
 231              		.type	CyBle_IsDeviceAddressValid, %function
 232              	CyBle_IsDeviceAddressValid:
 233              	.LFB7:
 653:.\Generated_Source\PSoC4/BLE_eventHandler.c **** 
 654:.\Generated_Source\PSoC4/BLE_eventHandler.c **** 
 655:.\Generated_Source\PSoC4/BLE_eventHandler.c **** #if (CYBLE_GATT_ROLE_SERVER || CYBLE_GATT_ROLE_CLIENT)
 656:.\Generated_Source\PSoC4/BLE_eventHandler.c **** 
 657:.\Generated_Source\PSoC4/BLE_eventHandler.c **** /****************************************************************************** 
 658:.\Generated_Source\PSoC4/BLE_eventHandler.c **** ##Function Name: CyBle_IsDeviceAddressValid
 659:.\Generated_Source\PSoC4/BLE_eventHandler.c **** *******************************************************************************
 660:.\Generated_Source\PSoC4/BLE_eventHandler.c **** 
 661:.\Generated_Source\PSoC4/BLE_eventHandler.c **** Summary:
 662:.\Generated_Source\PSoC4/BLE_eventHandler.c ****  This function verifies that BLE public address has been programmed to SFLASH 
 663:.\Generated_Source\PSoC4/BLE_eventHandler.c ****  during manufacture.
 664:.\Generated_Source\PSoC4/BLE_eventHandler.c **** 
 665:.\Generated_Source\PSoC4/BLE_eventHandler.c **** Parameters:
 666:.\Generated_Source\PSoC4/BLE_eventHandler.c ****  CYBLE_GAP_BD_ADDR_T *sflashDeviceAddress: the pointer to the BD address of 
 667:.\Generated_Source\PSoC4/BLE_eventHandler.c ****                                            type CYBLE_GAP_BD_ADDR_T. 
 668:.\Generated_Source\PSoC4/BLE_eventHandler.c **** 
 669:.\Generated_Source\PSoC4/BLE_eventHandler.c **** Return:
 670:.\Generated_Source\PSoC4/BLE_eventHandler.c ****  Non zero value when a device address differs from the default SFLASH content.
 671:.\Generated_Source\PSoC4/BLE_eventHandler.c **** 
 672:.\Generated_Source\PSoC4/BLE_eventHandler.c **** ******************************************************************************/
 673:.\Generated_Source\PSoC4/BLE_eventHandler.c **** static uint8 CyBle_IsDeviceAddressValid(const CYBLE_GAP_BD_ADDR_T *sflashDeviceAddress)
 674:.\Generated_Source\PSoC4/BLE_eventHandler.c **** {
 234              		.loc 1 674 0
 235              		.cfi_startproc
 236 0000 80B5     		push	{r7, lr}
 237              		.cfi_def_cfa_offset 8
 238              		.cfi_offset 7, -8
ARM GAS  C:\Users\Adeel\AppData\Local\Temp\ccys3HkN.s 			page 17


 239              		.cfi_offset 14, -4
 240 0002 84B0     		sub	sp, sp, #16
 241              		.cfi_def_cfa_offset 24
 242 0004 00AF     		add	r7, sp, #0
 243              		.cfi_def_cfa_register 7
 244 0006 7860     		str	r0, [r7, #4]
 675:.\Generated_Source\PSoC4/BLE_eventHandler.c ****     uint8 i;
 676:.\Generated_Source\PSoC4/BLE_eventHandler.c ****     uint8 sflashAddressValid = 0u;
 245              		.loc 1 676 0
 246 0008 3B1C     		mov	r3, r7
 247 000a 0E33     		add	r3, r3, #14
 248 000c 0022     		mov	r2, #0
 249 000e 1A70     		strb	r2, [r3]
 677:.\Generated_Source\PSoC4/BLE_eventHandler.c ****     
 678:.\Generated_Source\PSoC4/BLE_eventHandler.c ****     if(sflashDeviceAddress -> type == CYBLE_GAP_ADDR_TYPE_PUBLIC)  
 250              		.loc 1 678 0
 251 0010 7B68     		ldr	r3, [r7, #4]
 252 0012 9B79     		ldrb	r3, [r3, #6]
 253 0014 002B     		cmp	r3, #0
 254 0016 1CD1     		bne	.L13
 679:.\Generated_Source\PSoC4/BLE_eventHandler.c ****     {
 680:.\Generated_Source\PSoC4/BLE_eventHandler.c ****         for(i = 0u; i < CYBLE_GAP_BD_ADDR_SIZE; i++)
 255              		.loc 1 680 0
 256 0018 3B1C     		mov	r3, r7
 257 001a 0F33     		add	r3, r3, #15
 258 001c 0022     		mov	r2, #0
 259 001e 1A70     		strb	r2, [r3]
 260 0020 12E0     		b	.L14
 261              	.L16:
 681:.\Generated_Source\PSoC4/BLE_eventHandler.c ****         {
 682:.\Generated_Source\PSoC4/BLE_eventHandler.c ****             if(sflashDeviceAddress->bdAddr[i] != 0u)
 262              		.loc 1 682 0
 263 0022 3B1C     		mov	r3, r7
 264 0024 0F33     		add	r3, r3, #15
 265 0026 1B78     		ldrb	r3, [r3]
 266 0028 7A68     		ldr	r2, [r7, #4]
 267 002a D35C     		ldrb	r3, [r2, r3]
 268 002c 002B     		cmp	r3, #0
 269 002e 04D0     		beq	.L15
 683:.\Generated_Source\PSoC4/BLE_eventHandler.c ****             {
 684:.\Generated_Source\PSoC4/BLE_eventHandler.c ****                 sflashAddressValid = 1u;
 270              		.loc 1 684 0
 271 0030 3B1C     		mov	r3, r7
 272 0032 0E33     		add	r3, r3, #14
 273 0034 0122     		mov	r2, #1
 274 0036 1A70     		strb	r2, [r3]
 685:.\Generated_Source\PSoC4/BLE_eventHandler.c ****                 break;
 275              		.loc 1 685 0
 276 0038 0BE0     		b	.L13
 277              	.L15:
 680:.\Generated_Source\PSoC4/BLE_eventHandler.c ****         for(i = 0u; i < CYBLE_GAP_BD_ADDR_SIZE; i++)
 278              		.loc 1 680 0
 279 003a 3B1C     		mov	r3, r7
 280 003c 0F33     		add	r3, r3, #15
 281 003e 1A78     		ldrb	r2, [r3]
 282 0040 3B1C     		mov	r3, r7
 283 0042 0F33     		add	r3, r3, #15
ARM GAS  C:\Users\Adeel\AppData\Local\Temp\ccys3HkN.s 			page 18


 284 0044 0132     		add	r2, r2, #1
 285 0046 1A70     		strb	r2, [r3]
 286              	.L14:
 680:.\Generated_Source\PSoC4/BLE_eventHandler.c ****         for(i = 0u; i < CYBLE_GAP_BD_ADDR_SIZE; i++)
 287              		.loc 1 680 0 is_stmt 0 discriminator 1
 288 0048 3B1C     		mov	r3, r7
 289 004a 0F33     		add	r3, r3, #15
 290 004c 1B78     		ldrb	r3, [r3]
 291 004e 052B     		cmp	r3, #5
 292 0050 E7D9     		bls	.L16
 293              	.L13:
 686:.\Generated_Source\PSoC4/BLE_eventHandler.c ****             }
 687:.\Generated_Source\PSoC4/BLE_eventHandler.c ****         }
 688:.\Generated_Source\PSoC4/BLE_eventHandler.c ****     }
 689:.\Generated_Source\PSoC4/BLE_eventHandler.c ****     return (sflashAddressValid);
 294              		.loc 1 689 0 is_stmt 1
 295 0052 3B1C     		mov	r3, r7
 296 0054 0E33     		add	r3, r3, #14
 297 0056 1B78     		ldrb	r3, [r3]
 690:.\Generated_Source\PSoC4/BLE_eventHandler.c **** }
 298              		.loc 1 690 0
 299 0058 181C     		mov	r0, r3
 300 005a BD46     		mov	sp, r7
 301 005c 04B0     		add	sp, sp, #16
 302              		@ sp needed
 303 005e 80BD     		pop	{r7, pc}
 304              		.cfi_endproc
 305              	.LFE7:
 306              		.size	CyBle_IsDeviceAddressValid, .-CyBle_IsDeviceAddressValid
 307              		.section	.text.CyBle_L2Cap_ConnParamUpdateRspEventHandler,"ax",%progbits
 308              		.align	2
 309              		.code	16
 310              		.thumb_func
 311              		.type	CyBle_L2Cap_ConnParamUpdateRspEventHandler, %function
 312              	CyBle_L2Cap_ConnParamUpdateRspEventHandler:
 313              	.LFB8:
 691:.\Generated_Source\PSoC4/BLE_eventHandler.c **** #endif /* (CYBLE_GATT_ROLE_SERVER || CYBLE_GATT_ROLE_CLIENT) */
 692:.\Generated_Source\PSoC4/BLE_eventHandler.c **** 
 693:.\Generated_Source\PSoC4/BLE_eventHandler.c **** 
 694:.\Generated_Source\PSoC4/BLE_eventHandler.c **** /****************************************************************************** 
 695:.\Generated_Source\PSoC4/BLE_eventHandler.c **** ##Function Name: CyBle_L2Cap_ConnParamUpdateRspHandler
 696:.\Generated_Source\PSoC4/BLE_eventHandler.c **** *******************************************************************************
 697:.\Generated_Source\PSoC4/BLE_eventHandler.c **** 
 698:.\Generated_Source\PSoC4/BLE_eventHandler.c **** Summary:
 699:.\Generated_Source\PSoC4/BLE_eventHandler.c ****  Handles the L2CAP connection parameter response event from
 700:.\Generated_Source\PSoC4/BLE_eventHandler.c ****  the BLE stack.
 701:.\Generated_Source\PSoC4/BLE_eventHandler.c **** 
 702:.\Generated_Source\PSoC4/BLE_eventHandler.c **** Parameters:
 703:.\Generated_Source\PSoC4/BLE_eventHandler.c ****  uint16 response:
 704:.\Generated_Source\PSoC4/BLE_eventHandler.c ****      * Accepted = 0x0000
 705:.\Generated_Source\PSoC4/BLE_eventHandler.c ****      * Rejected = 0x0001
 706:.\Generated_Source\PSoC4/BLE_eventHandler.c **** 
 707:.\Generated_Source\PSoC4/BLE_eventHandler.c **** Return:
 708:.\Generated_Source\PSoC4/BLE_eventHandler.c ****  None
 709:.\Generated_Source\PSoC4/BLE_eventHandler.c **** 
 710:.\Generated_Source\PSoC4/BLE_eventHandler.c **** ******************************************************************************/
 711:.\Generated_Source\PSoC4/BLE_eventHandler.c **** static void CyBle_L2Cap_ConnParamUpdateRspEventHandler(uint16 response)
ARM GAS  C:\Users\Adeel\AppData\Local\Temp\ccys3HkN.s 			page 19


 712:.\Generated_Source\PSoC4/BLE_eventHandler.c **** {
 314              		.loc 1 712 0
 315              		.cfi_startproc
 316 0000 80B5     		push	{r7, lr}
 317              		.cfi_def_cfa_offset 8
 318              		.cfi_offset 7, -8
 319              		.cfi_offset 14, -4
 320 0002 82B0     		sub	sp, sp, #8
 321              		.cfi_def_cfa_offset 16
 322 0004 00AF     		add	r7, sp, #0
 323              		.cfi_def_cfa_register 7
 324 0006 021C     		mov	r2, r0
 325 0008 BB1D     		add	r3, r7, #6
 326 000a 1A80     		strh	r2, [r3]
 713:.\Generated_Source\PSoC4/BLE_eventHandler.c ****     #ifdef CYBLE_CPS_SERVER
 714:.\Generated_Source\PSoC4/BLE_eventHandler.c ****         CyBle_CpssConnParamUpdateRspEventHandler(response);
 715:.\Generated_Source\PSoC4/BLE_eventHandler.c ****     #endif /* CYBLE_CPS_SERVER */
 716:.\Generated_Source\PSoC4/BLE_eventHandler.c ****     
 717:.\Generated_Source\PSoC4/BLE_eventHandler.c ****     /* Unreferenced variable warning workaround */
 718:.\Generated_Source\PSoC4/BLE_eventHandler.c ****     if(response != 0u)
 719:.\Generated_Source\PSoC4/BLE_eventHandler.c ****     {
 720:.\Generated_Source\PSoC4/BLE_eventHandler.c ****     }
 721:.\Generated_Source\PSoC4/BLE_eventHandler.c **** }
 327              		.loc 1 721 0
 328 000c BD46     		mov	sp, r7
 329 000e 02B0     		add	sp, sp, #8
 330              		@ sp needed
 331 0010 80BD     		pop	{r7, pc}
 332              		.cfi_endproc
 333              	.LFE8:
 334              		.size	CyBle_L2Cap_ConnParamUpdateRspEventHandler, .-CyBle_L2Cap_ConnParamUpdateRspEventHandler
 335 0012 C046     		.section	.text.CyBle_GapConnUpdateCompleteEventHandler,"ax",%progbits
 336              		.align	2
 337              		.code	16
 338              		.thumb_func
 339              		.type	CyBle_GapConnUpdateCompleteEventHandler, %function
 340              	CyBle_GapConnUpdateCompleteEventHandler:
 341              	.LFB9:
 722:.\Generated_Source\PSoC4/BLE_eventHandler.c **** 
 723:.\Generated_Source\PSoC4/BLE_eventHandler.c **** 
 724:.\Generated_Source\PSoC4/BLE_eventHandler.c **** /****************************************************************************** 
 725:.\Generated_Source\PSoC4/BLE_eventHandler.c **** ##Function Name: CyBle_GapConnUpdateCompleteEventHandler
 726:.\Generated_Source\PSoC4/BLE_eventHandler.c **** *******************************************************************************
 727:.\Generated_Source\PSoC4/BLE_eventHandler.c **** 
 728:.\Generated_Source\PSoC4/BLE_eventHandler.c **** Summary:
 729:.\Generated_Source\PSoC4/BLE_eventHandler.c ****  Handles the CYBLE_EVT_GAP_CONNECTION_UPDATE_COMPLETE event from
 730:.\Generated_Source\PSoC4/BLE_eventHandler.c ****  the BLE stack.
 731:.\Generated_Source\PSoC4/BLE_eventHandler.c **** 
 732:.\Generated_Source\PSoC4/BLE_eventHandler.c **** Parameters:
 733:.\Generated_Source\PSoC4/BLE_eventHandler.c ****  *eventParam: The pointer to the data structure specified by the event.
 734:.\Generated_Source\PSoC4/BLE_eventHandler.c **** 
 735:.\Generated_Source\PSoC4/BLE_eventHandler.c **** Return:
 736:.\Generated_Source\PSoC4/BLE_eventHandler.c ****  None
 737:.\Generated_Source\PSoC4/BLE_eventHandler.c **** 
 738:.\Generated_Source\PSoC4/BLE_eventHandler.c **** ******************************************************************************/
 739:.\Generated_Source\PSoC4/BLE_eventHandler.c **** static void CyBle_GapConnUpdateCompleteEventHandler(const CYBLE_GAP_CONN_PARAM_UPDATED_IN_CONTROLLE
 740:.\Generated_Source\PSoC4/BLE_eventHandler.c **** {
ARM GAS  C:\Users\Adeel\AppData\Local\Temp\ccys3HkN.s 			page 20


 342              		.loc 1 740 0
 343              		.cfi_startproc
 344 0000 80B5     		push	{r7, lr}
 345              		.cfi_def_cfa_offset 8
 346              		.cfi_offset 7, -8
 347              		.cfi_offset 14, -4
 348 0002 82B0     		sub	sp, sp, #8
 349              		.cfi_def_cfa_offset 16
 350 0004 00AF     		add	r7, sp, #0
 351              		.cfi_def_cfa_register 7
 352 0006 7860     		str	r0, [r7, #4]
 741:.\Generated_Source\PSoC4/BLE_eventHandler.c ****     #ifdef CYBLE_CPS_SERVER
 742:.\Generated_Source\PSoC4/BLE_eventHandler.c ****         CyBle_CpssConnUpdateCompleteEventHandler(eventParam);
 743:.\Generated_Source\PSoC4/BLE_eventHandler.c ****     #endif /* CYBLE_CPS_SERVER */
 744:.\Generated_Source\PSoC4/BLE_eventHandler.c ****     
 745:.\Generated_Source\PSoC4/BLE_eventHandler.c ****     /* Unreferenced variable warning workaround */
 746:.\Generated_Source\PSoC4/BLE_eventHandler.c ****     if(eventParam != 0u)
 747:.\Generated_Source\PSoC4/BLE_eventHandler.c ****     {
 748:.\Generated_Source\PSoC4/BLE_eventHandler.c ****     }
 749:.\Generated_Source\PSoC4/BLE_eventHandler.c **** }
 353              		.loc 1 749 0
 354 0008 BD46     		mov	sp, r7
 355 000a 02B0     		add	sp, sp, #8
 356              		@ sp needed
 357 000c 80BD     		pop	{r7, pc}
 358              		.cfi_endproc
 359              	.LFE9:
 360              		.size	CyBle_GapConnUpdateCompleteEventHandler, .-CyBle_GapConnUpdateCompleteEventHandler
 361              		.section	.text.CyBle_EventHandler,"ax",%progbits
 362              		.align	2
 363              		.global	CyBle_EventHandler
 364              		.code	16
 365              		.thumb_func
 366              		.type	CyBle_EventHandler, %function
 367              	CyBle_EventHandler:
 368              	.LFB10:
 750:.\Generated_Source\PSoC4/BLE_eventHandler.c **** 
 751:.\Generated_Source\PSoC4/BLE_eventHandler.c **** 
 752:.\Generated_Source\PSoC4/BLE_eventHandler.c **** /****************************************************************************** 
 753:.\Generated_Source\PSoC4/BLE_eventHandler.c **** ##Function Name: CyBle_EventHandler
 754:.\Generated_Source\PSoC4/BLE_eventHandler.c **** *******************************************************************************
 755:.\Generated_Source\PSoC4/BLE_eventHandler.c **** 
 756:.\Generated_Source\PSoC4/BLE_eventHandler.c **** Summary:
 757:.\Generated_Source\PSoC4/BLE_eventHandler.c ****  Handles the events from the BLE stack
 758:.\Generated_Source\PSoC4/BLE_eventHandler.c **** 
 759:.\Generated_Source\PSoC4/BLE_eventHandler.c **** Parameters:
 760:.\Generated_Source\PSoC4/BLE_eventHandler.c ****  eventCode:    the event code
 761:.\Generated_Source\PSoC4/BLE_eventHandler.c ****  *eventParam:  the event parameters
 762:.\Generated_Source\PSoC4/BLE_eventHandler.c **** 
 763:.\Generated_Source\PSoC4/BLE_eventHandler.c **** Return:
 764:.\Generated_Source\PSoC4/BLE_eventHandler.c ****  None.
 765:.\Generated_Source\PSoC4/BLE_eventHandler.c **** 
 766:.\Generated_Source\PSoC4/BLE_eventHandler.c **** ******************************************************************************/
 767:.\Generated_Source\PSoC4/BLE_eventHandler.c **** void CyBle_EventHandler(uint8 eventCode, void *eventParam)
 768:.\Generated_Source\PSoC4/BLE_eventHandler.c **** {
 369              		.loc 1 768 0
 370              		.cfi_startproc
ARM GAS  C:\Users\Adeel\AppData\Local\Temp\ccys3HkN.s 			page 21


 371 0000 80B5     		push	{r7, lr}
 372              		.cfi_def_cfa_offset 8
 373              		.cfi_offset 7, -8
 374              		.cfi_offset 14, -4
 375 0002 84B0     		sub	sp, sp, #16
 376              		.cfi_def_cfa_offset 24
 377 0004 00AF     		add	r7, sp, #0
 378              		.cfi_def_cfa_register 7
 379 0006 021C     		mov	r2, r0
 380 0008 3960     		str	r1, [r7]
 381 000a FB1D     		add	r3, r7, #7
 382 000c 1A70     		strb	r2, [r3]
 769:.\Generated_Source\PSoC4/BLE_eventHandler.c ****     cyBle_eventHandlerFlag |= CYBLE_CALLBACK;
 383              		.loc 1 769 0
 384 000e 904B     		ldr	r3, .L50
 385 0010 1B78     		ldrb	r3, [r3]
 386 0012 DBB2     		uxtb	r3, r3
 387 0014 0122     		mov	r2, #1
 388 0016 1343     		orr	r3, r2
 389 0018 DAB2     		uxtb	r2, r3
 390 001a 8D4B     		ldr	r3, .L50
 391 001c 1A70     		strb	r2, [r3]
 770:.\Generated_Source\PSoC4/BLE_eventHandler.c **** 
 771:.\Generated_Source\PSoC4/BLE_eventHandler.c ****     /* Common Profile event handling */
 772:.\Generated_Source\PSoC4/BLE_eventHandler.c ****     switch(eventCode)
 392              		.loc 1 772 0
 393 001e FB1D     		add	r3, r7, #7
 394 0020 1B78     		ldrb	r3, [r3]
 395 0022 712B     		cmp	r3, #113
 396 0024 00D9     		bls	.LCB325
 397 0026 F7E0     		b	.L49	@long jump
 398              	.LCB325:
 399 0028 9A00     		lsl	r2, r3, #2
 400 002a 8A4B     		ldr	r3, .L50+4
 401 002c D318     		add	r3, r2, r3
 402 002e 1B68     		ldr	r3, [r3]
 403 0030 9F46     		mov	pc, r3
 404              		.section	.rodata
 405              		.align	2
 406              	.L23:
 407 0000 18020000 		.word	.L49
 408 0004 32000000 		.word	.L22
 409 0008 A8000000 		.word	.L24
 410 000c 18020000 		.word	.L49
 411 0010 18020000 		.word	.L49
 412 0014 B2000000 		.word	.L25
 413 0018 18020000 		.word	.L49
 414 001c 18020000 		.word	.L49
 415 0020 18020000 		.word	.L49
 416 0024 18020000 		.word	.L49
 417 0028 18020000 		.word	.L49
 418 002c 18020000 		.word	.L49
 419 0030 18020000 		.word	.L49
 420 0034 18020000 		.word	.L49
 421 0038 18020000 		.word	.L49
 422 003c 18020000 		.word	.L49
 423 0040 18020000 		.word	.L49
ARM GAS  C:\Users\Adeel\AppData\Local\Temp\ccys3HkN.s 			page 22


 424 0044 18020000 		.word	.L49
 425 0048 18020000 		.word	.L49
 426 004c 18020000 		.word	.L49
 427 0050 18020000 		.word	.L49
 428 0054 18020000 		.word	.L49
 429 0058 18020000 		.word	.L49
 430 005c 18020000 		.word	.L49
 431 0060 18020000 		.word	.L49
 432 0064 18020000 		.word	.L49
 433 0068 18020000 		.word	.L49
 434 006c 18020000 		.word	.L49
 435 0070 18020000 		.word	.L49
 436 0074 18020000 		.word	.L49
 437 0078 18020000 		.word	.L49
 438 007c 18020000 		.word	.L49
 439 0080 18020000 		.word	.L49
 440 0084 BC000000 		.word	.L26
 441 0088 18020000 		.word	.L49
 442 008c 18020000 		.word	.L49
 443 0090 18020000 		.word	.L49
 444 0094 18020000 		.word	.L49
 445 0098 0C010000 		.word	.L27
 446 009c F4000000 		.word	.L28
 447 00a0 04010000 		.word	.L29
 448 00a4 18020000 		.word	.L49
 449 00a8 EA000000 		.word	.L30
 450 00ac 18020000 		.word	.L49
 451 00b0 18020000 		.word	.L49
 452 00b4 18020000 		.word	.L49
 453 00b8 18020000 		.word	.L49
 454 00bc 18020000 		.word	.L49
 455 00c0 18020000 		.word	.L49
 456 00c4 18020000 		.word	.L49
 457 00c8 18020000 		.word	.L49
 458 00cc 18020000 		.word	.L49
 459 00d0 18020000 		.word	.L49
 460 00d4 18020000 		.word	.L49
 461 00d8 18020000 		.word	.L49
 462 00dc 18020000 		.word	.L49
 463 00e0 18020000 		.word	.L49
 464 00e4 18020000 		.word	.L49
 465 00e8 18020000 		.word	.L49
 466 00ec 18020000 		.word	.L49
 467 00f0 18020000 		.word	.L49
 468 00f4 18020000 		.word	.L49
 469 00f8 18020000 		.word	.L49
 470 00fc 18020000 		.word	.L49
 471 0100 18020000 		.word	.L49
 472 0104 8C010000 		.word	.L31
 473 0108 C2010000 		.word	.L32
 474 010c C8010000 		.word	.L33
 475 0110 18020000 		.word	.L49
 476 0114 18020000 		.word	.L49
 477 0118 18020000 		.word	.L49
 478 011c 18020000 		.word	.L49
 479 0120 18020000 		.word	.L49
 480 0124 18020000 		.word	.L49
ARM GAS  C:\Users\Adeel\AppData\Local\Temp\ccys3HkN.s 			page 23


 481 0128 18020000 		.word	.L49
 482 012c 18020000 		.word	.L49
 483 0130 04020000 		.word	.L34
 484 0134 18020000 		.word	.L49
 485 0138 18020000 		.word	.L49
 486 013c 18020000 		.word	.L49
 487 0140 18020000 		.word	.L49
 488 0144 18020000 		.word	.L49
 489 0148 18020000 		.word	.L49
 490 014c 18020000 		.word	.L49
 491 0150 0E020000 		.word	.L36
 492 0154 18020000 		.word	.L49
 493 0158 18020000 		.word	.L49
 494 015c 18020000 		.word	.L49
 495 0160 18020000 		.word	.L49
 496 0164 18020000 		.word	.L49
 497 0168 18020000 		.word	.L49
 498 016c 18020000 		.word	.L49
 499 0170 18020000 		.word	.L49
 500 0174 18020000 		.word	.L49
 501 0178 18020000 		.word	.L49
 502 017c 18020000 		.word	.L49
 503 0180 18020000 		.word	.L49
 504 0184 18020000 		.word	.L49
 505 0188 18020000 		.word	.L49
 506 018c 18020000 		.word	.L49
 507 0190 18020000 		.word	.L49
 508 0194 18020000 		.word	.L49
 509 0198 18020000 		.word	.L49
 510 019c 18020000 		.word	.L49
 511 01a0 18020000 		.word	.L49
 512 01a4 18020000 		.word	.L49
 513 01a8 18020000 		.word	.L49
 514 01ac 18020000 		.word	.L49
 515 01b0 18020000 		.word	.L49
 516 01b4 18020000 		.word	.L49
 517 01b8 18020000 		.word	.L49
 518 01bc 18020000 		.word	.L49
 519 01c0 18020000 		.word	.L49
 520 01c4 80010000 		.word	.L37
 521              		.section	.text.CyBle_EventHandler
 522              	.L22:
 523              	.LBB3:
 773:.\Generated_Source\PSoC4/BLE_eventHandler.c ****     {
 774:.\Generated_Source\PSoC4/BLE_eventHandler.c ****         /**********************************************************
 775:.\Generated_Source\PSoC4/BLE_eventHandler.c ****         ##General events
 776:.\Generated_Source\PSoC4/BLE_eventHandler.c ****         ***********************************************************/
 777:.\Generated_Source\PSoC4/BLE_eventHandler.c ****         case CYBLE_EVT_STACK_ON:
 778:.\Generated_Source\PSoC4/BLE_eventHandler.c ****         #if(CYBLE_MODE_PROFILE)
 779:.\Generated_Source\PSoC4/BLE_eventHandler.c ****         {
 780:.\Generated_Source\PSoC4/BLE_eventHandler.c ****             CYBLE_BLESS_PWR_IN_DB_T bleSsPowerLevel;
 781:.\Generated_Source\PSoC4/BLE_eventHandler.c ****             
 782:.\Generated_Source\PSoC4/BLE_eventHandler.c ****             /* Set Tx Power Level for advertising and connection channels */
 783:.\Generated_Source\PSoC4/BLE_eventHandler.c ****             bleSsPowerLevel.blePwrLevelInDbm = CYBLE_TX_POWER_LEVEL;
 524              		.loc 1 783 0
 525 0032 3B1C     		mov	r3, r7
 526 0034 0C33     		add	r3, r3, #12
ARM GAS  C:\Users\Adeel\AppData\Local\Temp\ccys3HkN.s 			page 24


 527 0036 0822     		mov	r2, #8
 528 0038 1A70     		strb	r2, [r3]
 784:.\Generated_Source\PSoC4/BLE_eventHandler.c ****             bleSsPowerLevel.bleSsChId = CYBLE_LL_ADV_CH_TYPE;
 529              		.loc 1 784 0
 530 003a 3B1C     		mov	r3, r7
 531 003c 0C33     		add	r3, r3, #12
 532 003e 0022     		mov	r2, #0
 533 0040 5A70     		strb	r2, [r3, #1]
 785:.\Generated_Source\PSoC4/BLE_eventHandler.c ****             (void) CyBle_SetTxPowerLevel (&bleSsPowerLevel);
 534              		.loc 1 785 0
 535 0042 3B1C     		mov	r3, r7
 536 0044 0C33     		add	r3, r3, #12
 537 0046 181C     		mov	r0, r3
 538 0048 FFF7FEFF 		bl	CyBle_SetTxPowerLevel
 786:.\Generated_Source\PSoC4/BLE_eventHandler.c ****             bleSsPowerLevel.bleSsChId = CYBLE_LL_CONN_CH_TYPE;
 539              		.loc 1 786 0
 540 004c 3B1C     		mov	r3, r7
 541 004e 0C33     		add	r3, r3, #12
 542 0050 0122     		mov	r2, #1
 543 0052 5A70     		strb	r2, [r3, #1]
 787:.\Generated_Source\PSoC4/BLE_eventHandler.c ****             (void) CyBle_SetTxPowerLevel (&bleSsPowerLevel);
 544              		.loc 1 787 0
 545 0054 3B1C     		mov	r3, r7
 546 0056 0C33     		add	r3, r3, #12
 547 0058 181C     		mov	r0, r3
 548 005a FFF7FEFF 		bl	CyBle_SetTxPowerLevel
 549              	.LBE3:
 788:.\Generated_Source\PSoC4/BLE_eventHandler.c ****         }
 789:.\Generated_Source\PSoC4/BLE_eventHandler.c ****         #endif /* CYBLE_MODE_PROFILE */
 790:.\Generated_Source\PSoC4/BLE_eventHandler.c ****         #if (CYBLE_GATT_ROLE_SERVER || CYBLE_GATT_ROLE_CLIENT)
 791:.\Generated_Source\PSoC4/BLE_eventHandler.c ****             /* Set device Address  */
 792:.\Generated_Source\PSoC4/BLE_eventHandler.c ****             if(CyBle_IsDeviceAddressValid(cyBle_sflashDeviceAddress) != 0u)
 550              		.loc 1 792 0
 551 005e 7E4B     		ldr	r3, .L50+8
 552 0060 1B68     		ldr	r3, [r3]
 553 0062 181C     		mov	r0, r3
 554 0064 FFF7FEFF 		bl	CyBle_IsDeviceAddressValid
 555 0068 031C     		mov	r3, r0
 556 006a 002B     		cmp	r3, #0
 557 006c 05D0     		beq	.L38
 793:.\Generated_Source\PSoC4/BLE_eventHandler.c ****             {
 794:.\Generated_Source\PSoC4/BLE_eventHandler.c ****                 (void) CyBle_SetDeviceAddress(cyBle_sflashDeviceAddress);
 558              		.loc 1 794 0
 559 006e 7A4B     		ldr	r3, .L50+8
 560 0070 1B68     		ldr	r3, [r3]
 561 0072 181C     		mov	r0, r3
 562 0074 FFF7FEFF 		bl	CyBle_SetDeviceAddress
 563 0078 0FE0     		b	.L39
 564              	.L38:
 795:.\Generated_Source\PSoC4/BLE_eventHandler.c ****             }
 796:.\Generated_Source\PSoC4/BLE_eventHandler.c ****             else
 797:.\Generated_Source\PSoC4/BLE_eventHandler.c ****             {
 798:.\Generated_Source\PSoC4/BLE_eventHandler.c ****             #if (SILICON_GENERATED_DEVICE_ADDRESS != 0u)
 799:.\Generated_Source\PSoC4/BLE_eventHandler.c ****                 cyBle_deviceAddress.bdAddr[0] = CYBLE_SFLASH_DIE_X_REG;
 565              		.loc 1 799 0
 566 007a 784B     		ldr	r3, .L50+12
 567 007c 1A78     		ldrb	r2, [r3]
ARM GAS  C:\Users\Adeel\AppData\Local\Temp\ccys3HkN.s 			page 25


 568 007e 784B     		ldr	r3, .L50+16
 569 0080 1A70     		strb	r2, [r3]
 800:.\Generated_Source\PSoC4/BLE_eventHandler.c ****                 cyBle_deviceAddress.bdAddr[1] = CYBLE_SFLASH_DIE_Y_REG;
 570              		.loc 1 800 0
 571 0082 784B     		ldr	r3, .L50+20
 572 0084 1A78     		ldrb	r2, [r3]
 573 0086 764B     		ldr	r3, .L50+16
 574 0088 5A70     		strb	r2, [r3, #1]
 801:.\Generated_Source\PSoC4/BLE_eventHandler.c ****                 cyBle_deviceAddress.bdAddr[2] = CYBLE_SFLASH_DIE_WAFER_REG;
 575              		.loc 1 801 0
 576 008a 774B     		ldr	r3, .L50+24
 577 008c 1A78     		ldrb	r2, [r3]
 578 008e 744B     		ldr	r3, .L50+16
 579 0090 9A70     		strb	r2, [r3, #2]
 802:.\Generated_Source\PSoC4/BLE_eventHandler.c ****             #endif /* SILICON_GENERATED_DEVICE_ADDRESS != 0u */
 803:.\Generated_Source\PSoC4/BLE_eventHandler.c ****                 (void) CyBle_SetDeviceAddress(&cyBle_deviceAddress);
 580              		.loc 1 803 0
 581 0092 734B     		ldr	r3, .L50+16
 582 0094 181C     		mov	r0, r3
 583 0096 FFF7FEFF 		bl	CyBle_SetDeviceAddress
 584              	.L39:
 804:.\Generated_Source\PSoC4/BLE_eventHandler.c ****             }
 805:.\Generated_Source\PSoC4/BLE_eventHandler.c ****             /* Set device IO Capability  */
 806:.\Generated_Source\PSoC4/BLE_eventHandler.c ****             (void) CyBle_GapSetIoCap(CYBLE_IO_CAPABILITY);    
 585              		.loc 1 806 0
 586 009a 0320     		mov	r0, #3
 587 009c FFF7FEFF 		bl	CyBle_GapSetIoCap
 807:.\Generated_Source\PSoC4/BLE_eventHandler.c ****         #endif /* CYBLE_GATT_ROLE_SERVER || CYBLE_GATT_ROLE_CLIENT */
 808:.\Generated_Source\PSoC4/BLE_eventHandler.c ****             CyBle_SetState(CYBLE_STATE_DISCONNECTED);
 588              		.loc 1 808 0
 589 00a0 724B     		ldr	r3, .L50+28
 590 00a2 0422     		mov	r2, #4
 591 00a4 1A70     		strb	r2, [r3]
 809:.\Generated_Source\PSoC4/BLE_eventHandler.c ****             break;
 592              		.loc 1 809 0
 593 00a6 B8E0     		b	.L40
 594              	.L24:
 810:.\Generated_Source\PSoC4/BLE_eventHandler.c ****         case CYBLE_EVT_TIMEOUT:
 811:.\Generated_Source\PSoC4/BLE_eventHandler.c ****             CyBle_TimeOutEventHandler((CYBLE_TO_REASON_CODE_T *)eventParam);
 595              		.loc 1 811 0
 596 00a8 3B68     		ldr	r3, [r7]
 597 00aa 181C     		mov	r0, r3
 598 00ac FFF7FEFF 		bl	CyBle_TimeOutEventHandler
 812:.\Generated_Source\PSoC4/BLE_eventHandler.c ****             break;
 599              		.loc 1 812 0
 600 00b0 B3E0     		b	.L40
 601              	.L25:
 813:.\Generated_Source\PSoC4/BLE_eventHandler.c ****     	case CYBLE_EVT_STACK_BUSY_STATUS:
 814:.\Generated_Source\PSoC4/BLE_eventHandler.c ****             cyBle_busStatus = *(uint8 *)eventParam;
 602              		.loc 1 814 0
 603 00b2 3B68     		ldr	r3, [r7]
 604 00b4 1A78     		ldrb	r2, [r3]
 605 00b6 6E4B     		ldr	r3, .L50+32
 606 00b8 1A70     		strb	r2, [r3]
 815:.\Generated_Source\PSoC4/BLE_eventHandler.c ****             break;
 607              		.loc 1 815 0
 608 00ba AEE0     		b	.L40
ARM GAS  C:\Users\Adeel\AppData\Local\Temp\ccys3HkN.s 			page 26


 609              	.L26:
 816:.\Generated_Source\PSoC4/BLE_eventHandler.c **** 
 817:.\Generated_Source\PSoC4/BLE_eventHandler.c ****         /**********************************************************
 818:.\Generated_Source\PSoC4/BLE_eventHandler.c ****         ##GAP events
 819:.\Generated_Source\PSoC4/BLE_eventHandler.c ****         ***********************************************************/
 820:.\Generated_Source\PSoC4/BLE_eventHandler.c ****         case CYBLE_EVT_GAP_AUTH_REQ:
 821:.\Generated_Source\PSoC4/BLE_eventHandler.c ****         #if(CYBLE_MODE_PROFILE)
 822:.\Generated_Source\PSoC4/BLE_eventHandler.c ****             if(0u == (cyBle_eventHandlerFlag & CYBLE_DISABLE_AUTOMATIC_AUTH))
 610              		.loc 1 822 0
 611 00bc 644B     		ldr	r3, .L50
 612 00be 1B78     		ldrb	r3, [r3]
 613 00c0 DBB2     		uxtb	r3, r3
 614 00c2 1A1C     		mov	r2, r3
 615 00c4 2023     		mov	r3, #32
 616 00c6 1340     		and	r3, r2
 617 00c8 0ED1     		bne	.L41
 823:.\Generated_Source\PSoC4/BLE_eventHandler.c ****             {
 824:.\Generated_Source\PSoC4/BLE_eventHandler.c ****                 /* If the responding device does not support pairing then the responding 
 825:.\Generated_Source\PSoC4/BLE_eventHandler.c ****                    device shall respond using the Pairing Failed message with the error 
 826:.\Generated_Source\PSoC4/BLE_eventHandler.c ****                    code "Pairing Not Supported" otherwise it responds with a Pairing 
 827:.\Generated_Source\PSoC4/BLE_eventHandler.c ****                    Response message.
 828:.\Generated_Source\PSoC4/BLE_eventHandler.c ****                 */
 829:.\Generated_Source\PSoC4/BLE_eventHandler.c ****                 if(cyBle_authInfo.security == (CYBLE_GAP_SEC_MODE_1 | CYBLE_GAP_SEC_LEVEL_1))
 618              		.loc 1 829 0
 619 00ca 6A4B     		ldr	r3, .L50+36
 620 00cc 1B78     		ldrb	r3, [r3]
 621 00ce 102B     		cmp	r3, #16
 622 00d0 02D1     		bne	.L42
 830:.\Generated_Source\PSoC4/BLE_eventHandler.c ****                 {
 831:.\Generated_Source\PSoC4/BLE_eventHandler.c ****                     cyBle_authInfo.authErr = CYBLE_GAP_AUTH_ERROR_PAIRING_NOT_SUPPORTED;
 623              		.loc 1 831 0
 624 00d2 684B     		ldr	r3, .L50+36
 625 00d4 0522     		mov	r2, #5
 626 00d6 DA70     		strb	r2, [r3, #3]
 627              	.L42:
 832:.\Generated_Source\PSoC4/BLE_eventHandler.c ****                 }    
 833:.\Generated_Source\PSoC4/BLE_eventHandler.c ****             #if(CYBLE_GAP_ROLE_PERIPHERAL)
 834:.\Generated_Source\PSoC4/BLE_eventHandler.c ****                 (void)CyBle_GappAuthReqReply(cyBle_connHandle.bdHandle, &cyBle_authInfo);
 628              		.loc 1 834 0
 629 00d8 674B     		ldr	r3, .L50+40
 630 00da 1A78     		ldrb	r2, [r3]
 631 00dc 654B     		ldr	r3, .L50+36
 632 00de 101C     		mov	r0, r2
 633 00e0 191C     		mov	r1, r3
 634 00e2 FFF7FEFF 		bl	CyBle_GappAuthReqReply
 835:.\Generated_Source\PSoC4/BLE_eventHandler.c ****             #endif /* CYBLE_GAP_ROLE_PERIPHERAL */
 836:.\Generated_Source\PSoC4/BLE_eventHandler.c ****             #if (CYBLE_GAP_ROLE_CENTRAL)
 837:.\Generated_Source\PSoC4/BLE_eventHandler.c ****                 (void)CyBle_GapAuthReq(cyBle_connHandle.bdHandle, &cyBle_authInfo);
 838:.\Generated_Source\PSoC4/BLE_eventHandler.c ****             #endif /* CYBLE_GAP_ROLE_CENTRAL */
 839:.\Generated_Source\PSoC4/BLE_eventHandler.c ****             }
 840:.\Generated_Source\PSoC4/BLE_eventHandler.c ****         #endif /* CYBLE_MODE_PROFILE */
 841:.\Generated_Source\PSoC4/BLE_eventHandler.c ****             break;
 635              		.loc 1 841 0
 636 00e6 98E0     		b	.L40
 637              	.L41:
 638 00e8 97E0     		b	.L40
 639              	.L30:
ARM GAS  C:\Users\Adeel\AppData\Local\Temp\ccys3HkN.s 			page 27


 842:.\Generated_Source\PSoC4/BLE_eventHandler.c **** 
 843:.\Generated_Source\PSoC4/BLE_eventHandler.c ****         case CYBLE_EVT_GAP_CONNECTION_UPDATE_COMPLETE:
 844:.\Generated_Source\PSoC4/BLE_eventHandler.c ****             CyBle_GapConnUpdateCompleteEventHandler((const CYBLE_GAP_CONN_PARAM_UPDATED_IN_CONTROLL
 640              		.loc 1 844 0
 641 00ea 3B68     		ldr	r3, [r7]
 642 00ec 181C     		mov	r0, r3
 643 00ee FFF7FEFF 		bl	CyBle_GapConnUpdateCompleteEventHandler
 845:.\Generated_Source\PSoC4/BLE_eventHandler.c ****             break;
 644              		.loc 1 845 0
 645 00f2 92E0     		b	.L40
 646              	.L28:
 846:.\Generated_Source\PSoC4/BLE_eventHandler.c ****         case CYBLE_EVT_GAP_DEVICE_CONNECTED:
 847:.\Generated_Source\PSoC4/BLE_eventHandler.c ****             CyBle_GapConnUpdateCompleteEventHandler((const CYBLE_GAP_CONN_PARAM_UPDATED_IN_CONTROLL
 647              		.loc 1 847 0
 648 00f4 3B68     		ldr	r3, [r7]
 649 00f6 181C     		mov	r0, r3
 650 00f8 FFF7FEFF 		bl	CyBle_GapConnUpdateCompleteEventHandler
 848:.\Generated_Source\PSoC4/BLE_eventHandler.c ****             #if(CYBLE_GAP_ROLE_CENTRAL)
 849:.\Generated_Source\PSoC4/BLE_eventHandler.c ****                 if(cyBle_connectingTimeout != 0u)
 850:.\Generated_Source\PSoC4/BLE_eventHandler.c ****                 {
 851:.\Generated_Source\PSoC4/BLE_eventHandler.c ****                    (void)CyBle_StopTimer();
 852:.\Generated_Source\PSoC4/BLE_eventHandler.c ****                 }
 853:.\Generated_Source\PSoC4/BLE_eventHandler.c ****             #endif /* CYBLE_GAP_ROLE_CENTRAL */
 854:.\Generated_Source\PSoC4/BLE_eventHandler.c ****             CyBle_SetState(CYBLE_STATE_CONNECTED);
 651              		.loc 1 854 0
 652 00fc 5B4B     		ldr	r3, .L50+28
 653 00fe 0222     		mov	r2, #2
 654 0100 1A70     		strb	r2, [r3]
 855:.\Generated_Source\PSoC4/BLE_eventHandler.c ****             break;
 655              		.loc 1 855 0
 656 0102 8AE0     		b	.L40
 657              	.L29:
 856:.\Generated_Source\PSoC4/BLE_eventHandler.c **** 
 857:.\Generated_Source\PSoC4/BLE_eventHandler.c ****         case CYBLE_EVT_GAP_DEVICE_DISCONNECTED:
 858:.\Generated_Source\PSoC4/BLE_eventHandler.c ****             CyBle_SetState(CYBLE_STATE_DISCONNECTED);
 658              		.loc 1 858 0
 659 0104 594B     		ldr	r3, .L50+28
 660 0106 0422     		mov	r2, #4
 661 0108 1A70     		strb	r2, [r3]
 859:.\Generated_Source\PSoC4/BLE_eventHandler.c ****             break;
 662              		.loc 1 859 0
 663 010a 86E0     		b	.L40
 664              	.L27:
 860:.\Generated_Source\PSoC4/BLE_eventHandler.c ****             
 861:.\Generated_Source\PSoC4/BLE_eventHandler.c ****         #if(CYBLE_GAP_ROLE_PERIPHERAL || CYBLE_GAP_ROLE_BROADCASTER)
 862:.\Generated_Source\PSoC4/BLE_eventHandler.c ****         case CYBLE_EVT_GAPP_ADVERTISEMENT_START_STOP:
 863:.\Generated_Source\PSoC4/BLE_eventHandler.c ****             
 864:.\Generated_Source\PSoC4/BLE_eventHandler.c ****         #ifdef CYBLE_CPS_SERVER
 865:.\Generated_Source\PSoC4/BLE_eventHandler.c ****             #if(CYBLE_GAP_ROLE_BROADCASTER)
 866:.\Generated_Source\PSoC4/BLE_eventHandler.c ****                 CyBle_CpssAdvertisementStartStopEventHandler();
 867:.\Generated_Source\PSoC4/BLE_eventHandler.c ****             #endif /* CYBLE_GAP_ROLE_BROADCASTER */
 868:.\Generated_Source\PSoC4/BLE_eventHandler.c ****         #endif /* CYBLE_CPS_SERVER */
 869:.\Generated_Source\PSoC4/BLE_eventHandler.c ****             
 870:.\Generated_Source\PSoC4/BLE_eventHandler.c ****             if((CYBLE_STATE_CONNECTED != CyBle_GetState()) && ((cyBle_eventHandlerFlag & CYBLE_CALL
 665              		.loc 1 870 0
 666 010c 574B     		ldr	r3, .L50+28
 667 010e 1B78     		ldrb	r3, [r3]
ARM GAS  C:\Users\Adeel\AppData\Local\Temp\ccys3HkN.s 			page 28


 668 0110 022B     		cmp	r3, #2
 669 0112 34D0     		beq	.L43
 670              		.loc 1 870 0 is_stmt 0 discriminator 1
 671 0114 4E4B     		ldr	r3, .L50
 672 0116 1B78     		ldrb	r3, [r3]
 673 0118 DBB2     		uxtb	r3, r3
 674 011a 1A1C     		mov	r2, r3
 675 011c 0123     		mov	r3, #1
 676 011e 1340     		and	r3, r2
 677 0120 2DD0     		beq	.L43
 871:.\Generated_Source\PSoC4/BLE_eventHandler.c ****             {
 872:.\Generated_Source\PSoC4/BLE_eventHandler.c ****                 /* After CyBle_GappStartAdvertisement first event indicates that advertising has be
 873:.\Generated_Source\PSoC4/BLE_eventHandler.c ****                 if(0u != (cyBle_eventHandlerFlag & CYBLE_START_FLAG))
 678              		.loc 1 873 0 is_stmt 1
 679 0122 4B4B     		ldr	r3, .L50
 680 0124 1B78     		ldrb	r3, [r3]
 681 0126 DBB2     		uxtb	r3, r3
 682 0128 1A1C     		mov	r2, r3
 683 012a 0423     		mov	r3, #4
 684 012c 1340     		and	r3, r2
 685 012e 0BD0     		beq	.L44
 874:.\Generated_Source\PSoC4/BLE_eventHandler.c ****                 {
 875:.\Generated_Source\PSoC4/BLE_eventHandler.c ****                     CyBle_SetState(CYBLE_STATE_ADVERTISING);
 686              		.loc 1 875 0
 687 0130 4E4B     		ldr	r3, .L50+28
 688 0132 0322     		mov	r2, #3
 689 0134 1A70     		strb	r2, [r3]
 876:.\Generated_Source\PSoC4/BLE_eventHandler.c ****                     cyBle_eventHandlerFlag &= (uint8)~CYBLE_START_FLAG;
 690              		.loc 1 876 0
 691 0136 464B     		ldr	r3, .L50
 692 0138 1B78     		ldrb	r3, [r3]
 693 013a DBB2     		uxtb	r3, r3
 694 013c 0422     		mov	r2, #4
 695 013e 9343     		bic	r3, r2
 696 0140 DAB2     		uxtb	r2, r3
 697 0142 434B     		ldr	r3, .L50
 698 0144 1A70     		strb	r2, [r3]
 699 0146 1AE0     		b	.L43
 700              	.L44:
 877:.\Generated_Source\PSoC4/BLE_eventHandler.c ****                 }
 878:.\Generated_Source\PSoC4/BLE_eventHandler.c ****                 /* When application initiated stop advertisement */
 879:.\Generated_Source\PSoC4/BLE_eventHandler.c ****                 else if(0u != (cyBle_eventHandlerFlag & CYBLE_STOP_FLAG))
 701              		.loc 1 879 0
 702 0148 414B     		ldr	r3, .L50
 703 014a 1B78     		ldrb	r3, [r3]
 704 014c DBB2     		uxtb	r3, r3
 705 014e 1A1C     		mov	r2, r3
 706 0150 0823     		mov	r3, #8
 707 0152 1340     		and	r3, r2
 708 0154 0BD0     		beq	.L45
 880:.\Generated_Source\PSoC4/BLE_eventHandler.c ****                 {
 881:.\Generated_Source\PSoC4/BLE_eventHandler.c ****                     CyBle_SetState(CYBLE_STATE_DISCONNECTED);  
 709              		.loc 1 881 0
 710 0156 454B     		ldr	r3, .L50+28
 711 0158 0422     		mov	r2, #4
 712 015a 1A70     		strb	r2, [r3]
 882:.\Generated_Source\PSoC4/BLE_eventHandler.c ****                     cyBle_eventHandlerFlag &= (uint8)~CYBLE_STOP_FLAG;
ARM GAS  C:\Users\Adeel\AppData\Local\Temp\ccys3HkN.s 			page 29


 713              		.loc 1 882 0
 714 015c 3C4B     		ldr	r3, .L50
 715 015e 1B78     		ldrb	r3, [r3]
 716 0160 DBB2     		uxtb	r3, r3
 717 0162 0822     		mov	r2, #8
 718 0164 9343     		bic	r3, r2
 719 0166 DAB2     		uxtb	r2, r3
 720 0168 394B     		ldr	r3, .L50
 721 016a 1A70     		strb	r2, [r3]
 722 016c 07E0     		b	.L43
 723              	.L45:
 883:.\Generated_Source\PSoC4/BLE_eventHandler.c ****                 }
 884:.\Generated_Source\PSoC4/BLE_eventHandler.c ****                 else /* Following event indicates that advertising has been stopped */
 885:.\Generated_Source\PSoC4/BLE_eventHandler.c ****                 {
 886:.\Generated_Source\PSoC4/BLE_eventHandler.c ****                     if(CYBLE_STATE_ADVERTISING == CyBle_GetState())
 724              		.loc 1 886 0
 725 016e 3F4B     		ldr	r3, .L50+28
 726 0170 1B78     		ldrb	r3, [r3]
 727 0172 032B     		cmp	r3, #3
 728 0174 03D1     		bne	.L43
 887:.\Generated_Source\PSoC4/BLE_eventHandler.c ****                     {
 888:.\Generated_Source\PSoC4/BLE_eventHandler.c ****                         CyBle_SetState(CYBLE_STATE_DISCONNECTED);
 729              		.loc 1 888 0
 730 0176 3D4B     		ldr	r3, .L50+28
 731 0178 0422     		mov	r2, #4
 732 017a 1A70     		strb	r2, [r3]
 889:.\Generated_Source\PSoC4/BLE_eventHandler.c ****                     #if (CYBLE_SLOW_ADV_ENABLED != 0u)
 890:.\Generated_Source\PSoC4/BLE_eventHandler.c ****                         if(cyBle_advertisingIntervalType == CYBLE_ADVERTISING_FAST)
 891:.\Generated_Source\PSoC4/BLE_eventHandler.c ****                         {
 892:.\Generated_Source\PSoC4/BLE_eventHandler.c ****                             /* When fast advertising time out occur: Start slow advertising */
 893:.\Generated_Source\PSoC4/BLE_eventHandler.c ****                             if(CYBLE_ERROR_OK == CyBle_GappStartAdvertisement(CYBLE_ADVERTISING_SLO
 894:.\Generated_Source\PSoC4/BLE_eventHandler.c ****                             {
 895:.\Generated_Source\PSoC4/BLE_eventHandler.c ****                                 CyBle_SetState(CYBLE_STATE_ADVERTISING);
 896:.\Generated_Source\PSoC4/BLE_eventHandler.c ****                             }
 897:.\Generated_Source\PSoC4/BLE_eventHandler.c ****                         }
 898:.\Generated_Source\PSoC4/BLE_eventHandler.c ****                     #endif /* CYBLE_SLOW_ADV_ENABLED */
 899:.\Generated_Source\PSoC4/BLE_eventHandler.c ****                     }
 900:.\Generated_Source\PSoC4/BLE_eventHandler.c ****                 }
 901:.\Generated_Source\PSoC4/BLE_eventHandler.c ****             }
 902:.\Generated_Source\PSoC4/BLE_eventHandler.c ****             break;
 733              		.loc 1 902 0
 734 017c 4DE0     		b	.L40
 735              	.L43:
 736 017e 4CE0     		b	.L40
 737              	.L37:
 903:.\Generated_Source\PSoC4/BLE_eventHandler.c ****         #endif /* CYBLE_GAP_ROLE_PERIPHERAL || CYBLE_GAP_ROLE_BROADCASTER */
 904:.\Generated_Source\PSoC4/BLE_eventHandler.c ****         
 905:.\Generated_Source\PSoC4/BLE_eventHandler.c ****         #if(CYBLE_GAP_ROLE_CENTRAL || CYBLE_GAP_ROLE_OBSERVER)    
 906:.\Generated_Source\PSoC4/BLE_eventHandler.c ****         case CYBLE_EVT_GAPC_SCAN_START_STOP:
 907:.\Generated_Source\PSoC4/BLE_eventHandler.c ****             
 908:.\Generated_Source\PSoC4/BLE_eventHandler.c ****         #ifdef CYBLE_CPS_CLIENT
 909:.\Generated_Source\PSoC4/BLE_eventHandler.c ****             CyBle_CpscScanStartStopEventHandler();
 910:.\Generated_Source\PSoC4/BLE_eventHandler.c ****         #endif /* CYBLE_CPS_CLIENT */
 911:.\Generated_Source\PSoC4/BLE_eventHandler.c ****             
 912:.\Generated_Source\PSoC4/BLE_eventHandler.c ****             if((CYBLE_STATE_CONNECTED != CyBle_GetState()) && ((cyBle_eventHandlerFlag & CYBLE_CALL
 913:.\Generated_Source\PSoC4/BLE_eventHandler.c ****             {
 914:.\Generated_Source\PSoC4/BLE_eventHandler.c ****                 /* After CyBle_GapcStartScan first event indicates that scanning has been started *
ARM GAS  C:\Users\Adeel\AppData\Local\Temp\ccys3HkN.s 			page 30


 915:.\Generated_Source\PSoC4/BLE_eventHandler.c ****                 if(0u != (cyBle_eventHandlerFlag & CYBLE_START_FLAG))
 916:.\Generated_Source\PSoC4/BLE_eventHandler.c ****                 {
 917:.\Generated_Source\PSoC4/BLE_eventHandler.c ****                     CyBle_SetState(CYBLE_STATE_SCANNING);
 918:.\Generated_Source\PSoC4/BLE_eventHandler.c ****                     cyBle_eventHandlerFlag &= (uint8)~CYBLE_START_FLAG;
 919:.\Generated_Source\PSoC4/BLE_eventHandler.c ****                 }
 920:.\Generated_Source\PSoC4/BLE_eventHandler.c ****                 /* When application initiated stop scanning */
 921:.\Generated_Source\PSoC4/BLE_eventHandler.c ****                 else if(0u != (cyBle_eventHandlerFlag & CYBLE_STOP_FLAG))
 922:.\Generated_Source\PSoC4/BLE_eventHandler.c ****                 {
 923:.\Generated_Source\PSoC4/BLE_eventHandler.c ****                     CyBle_SetState(CYBLE_STATE_DISCONNECTED);  
 924:.\Generated_Source\PSoC4/BLE_eventHandler.c ****                     cyBle_eventHandlerFlag &= (uint8)~CYBLE_STOP_FLAG;
 925:.\Generated_Source\PSoC4/BLE_eventHandler.c ****                 }
 926:.\Generated_Source\PSoC4/BLE_eventHandler.c ****                 else /* Following event indicates that scanning has been stopped by stack */
 927:.\Generated_Source\PSoC4/BLE_eventHandler.c ****                 {
 928:.\Generated_Source\PSoC4/BLE_eventHandler.c ****                     if(CYBLE_STATE_SCANNING == CyBle_GetState())
 929:.\Generated_Source\PSoC4/BLE_eventHandler.c ****                     {
 930:.\Generated_Source\PSoC4/BLE_eventHandler.c ****                         CyBle_SetState(CYBLE_STATE_DISCONNECTED);  
 931:.\Generated_Source\PSoC4/BLE_eventHandler.c ****                     #if (CYBLE_SLOW_SCAN_ENABLED != 0u)
 932:.\Generated_Source\PSoC4/BLE_eventHandler.c ****                         if(cyBle_scanningIntervalType == CYBLE_SCANNING_FAST)
 933:.\Generated_Source\PSoC4/BLE_eventHandler.c ****                         {
 934:.\Generated_Source\PSoC4/BLE_eventHandler.c ****                             /* When fast scanning time out occur: Start slow scanning */
 935:.\Generated_Source\PSoC4/BLE_eventHandler.c ****                             if(CYBLE_ERROR_OK == CyBle_GapcStartScan(CYBLE_SCANNING_SLOW))
 936:.\Generated_Source\PSoC4/BLE_eventHandler.c ****                             {
 937:.\Generated_Source\PSoC4/BLE_eventHandler.c ****                                 CyBle_SetState(CYBLE_STATE_SCANNING);
 938:.\Generated_Source\PSoC4/BLE_eventHandler.c ****                             }
 939:.\Generated_Source\PSoC4/BLE_eventHandler.c ****                         }
 940:.\Generated_Source\PSoC4/BLE_eventHandler.c ****                     #endif /* CYBLE_SLOW_ADV_ENABLED */
 941:.\Generated_Source\PSoC4/BLE_eventHandler.c ****                     }
 942:.\Generated_Source\PSoC4/BLE_eventHandler.c ****                 }
 943:.\Generated_Source\PSoC4/BLE_eventHandler.c ****             }
 944:.\Generated_Source\PSoC4/BLE_eventHandler.c ****             break;
 945:.\Generated_Source\PSoC4/BLE_eventHandler.c ****         #endif /* CYBLE_GAP_ROLE_CENTRAL || CYBLE_GAP_ROLE_OBSERVER */
 946:.\Generated_Source\PSoC4/BLE_eventHandler.c **** 
 947:.\Generated_Source\PSoC4/BLE_eventHandler.c ****         /**********************************************************
 948:.\Generated_Source\PSoC4/BLE_eventHandler.c ****         ##L2AP events 
 949:.\Generated_Source\PSoC4/BLE_eventHandler.c ****         ***********************************************************/
 950:.\Generated_Source\PSoC4/BLE_eventHandler.c ****         case CYBLE_EVT_L2CAP_CONN_PARAM_UPDATE_RSP:
 951:.\Generated_Source\PSoC4/BLE_eventHandler.c ****             CyBle_L2Cap_ConnParamUpdateRspEventHandler(*(uint16 *)eventParam);
 738              		.loc 1 951 0
 739 0180 3B68     		ldr	r3, [r7]
 740 0182 1B88     		ldrh	r3, [r3]
 741 0184 181C     		mov	r0, r3
 742 0186 FFF7FEFF 		bl	CyBle_L2Cap_ConnParamUpdateRspEventHandler
 952:.\Generated_Source\PSoC4/BLE_eventHandler.c ****             break;
 743              		.loc 1 952 0
 744 018a 46E0     		b	.L40
 745              	.L31:
 953:.\Generated_Source\PSoC4/BLE_eventHandler.c ****         
 954:.\Generated_Source\PSoC4/BLE_eventHandler.c ****         /**********************************************************
 955:.\Generated_Source\PSoC4/BLE_eventHandler.c ****         ##GATT events
 956:.\Generated_Source\PSoC4/BLE_eventHandler.c ****         ***********************************************************/        
 957:.\Generated_Source\PSoC4/BLE_eventHandler.c ****         case CYBLE_EVT_GATT_CONNECT_IND:
 958:.\Generated_Source\PSoC4/BLE_eventHandler.c ****             cyBle_connHandle = *(CYBLE_CONN_HANDLE_T *)eventParam;
 746              		.loc 1 958 0
 747 018c 3A4A     		ldr	r2, .L50+40
 748 018e 3B68     		ldr	r3, [r7]
 749 0190 111C     		mov	r1, r2
 750 0192 1A1C     		mov	r2, r3
ARM GAS  C:\Users\Adeel\AppData\Local\Temp\ccys3HkN.s 			page 31


 751 0194 0223     		mov	r3, #2
 752 0196 081C     		mov	r0, r1
 753 0198 111C     		mov	r1, r2
 754 019a 1A1C     		mov	r2, r3
 755 019c FFF7FEFF 		bl	memcpy
 959:.\Generated_Source\PSoC4/BLE_eventHandler.c ****             
 960:.\Generated_Source\PSoC4/BLE_eventHandler.c ****         #if((CYBLE_GATT_ROLE_SERVER) && (CYBLE_GATT_DB_CCCD_COUNT != 0u))
 961:.\Generated_Source\PSoC4/BLE_eventHandler.c ****             /* Init CCCD values in RAM */
 962:.\Generated_Source\PSoC4/BLE_eventHandler.c ****         	(void) memcpy (cyBle_attValuesCCCD, cyBle_attValuesCCCDFlashMemory[cyBle_connHandle.bdHand
 756              		.loc 1 962 0
 757 01a0 354B     		ldr	r3, .L50+40
 758 01a2 1B78     		ldrb	r3, [r3]
 759 01a4 9A00     		lsl	r2, r3, #2
 760 01a6 354B     		ldr	r3, .L50+44
 761 01a8 D318     		add	r3, r2, r3
 762 01aa 354A     		ldr	r2, .L50+48
 763 01ac 111C     		mov	r1, r2
 764 01ae 1A1C     		mov	r2, r3
 765 01b0 0423     		mov	r3, #4
 766 01b2 081C     		mov	r0, r1
 767 01b4 111C     		mov	r1, r2
 768 01b6 1A1C     		mov	r2, r3
 769 01b8 FFF7FEFF 		bl	memcpy
 963:.\Generated_Source\PSoC4/BLE_eventHandler.c ****                             CYBLE_GATT_DB_CCCD_COUNT);
 964:.\Generated_Source\PSoC4/BLE_eventHandler.c ****         #endif /* CYBLE_GATT_ROLE_SERVER */
 965:.\Generated_Source\PSoC4/BLE_eventHandler.c ****         
 966:.\Generated_Source\PSoC4/BLE_eventHandler.c ****         #if (CYBLE_GATT_ROLE_CLIENT)
 967:.\Generated_Source\PSoC4/BLE_eventHandler.c ****             CyBle_SetClientState(CYBLE_CLIENT_STATE_CONNECTED);
 968:.\Generated_Source\PSoC4/BLE_eventHandler.c ****         #endif /* CYBLE_GATT_ROLE_CLIENT */
 969:.\Generated_Source\PSoC4/BLE_eventHandler.c ****         
 970:.\Generated_Source\PSoC4/BLE_eventHandler.c ****             CyBle_GattConnectReqHandler();
 770              		.loc 1 970 0
 771 01bc FFF7FEFF 		bl	CyBle_GattConnectReqHandler
 971:.\Generated_Source\PSoC4/BLE_eventHandler.c ****             break;
 772              		.loc 1 971 0
 773 01c0 2BE0     		b	.L40
 774              	.L32:
 972:.\Generated_Source\PSoC4/BLE_eventHandler.c **** 
 973:.\Generated_Source\PSoC4/BLE_eventHandler.c ****         case CYBLE_EVT_GATT_DISCONNECT_IND:
 974:.\Generated_Source\PSoC4/BLE_eventHandler.c ****             CyBle_GattDisconnectEventHandler();
 775              		.loc 1 974 0
 776 01c2 FFF7FEFF 		bl	CyBle_GattDisconnectEventHandler
 975:.\Generated_Source\PSoC4/BLE_eventHandler.c ****             break;
 777              		.loc 1 975 0
 778 01c6 28E0     		b	.L40
 779              	.L33:
 780              	.LBB4:
 976:.\Generated_Source\PSoC4/BLE_eventHandler.c **** 
 977:.\Generated_Source\PSoC4/BLE_eventHandler.c ****     #if((CYBLE_GATT_ROLE_SERVER) || (CYBLE_GATT_ROLE_CLIENT))
 978:.\Generated_Source\PSoC4/BLE_eventHandler.c ****         case CYBLE_EVT_GATTS_XCNHG_MTU_REQ:
 979:.\Generated_Source\PSoC4/BLE_eventHandler.c ****         {
 980:.\Generated_Source\PSoC4/BLE_eventHandler.c ****             uint16 cyBle_mtuSize;
 981:.\Generated_Source\PSoC4/BLE_eventHandler.c ****             if(CYBLE_GATT_MTU > ((CYBLE_GATT_XCHG_MTU_PARAM_T *)eventParam)->mtu)
 781              		.loc 1 981 0
 782 01c8 3B68     		ldr	r3, [r7]
 783 01ca 5B88     		ldrh	r3, [r3, #2]
 784 01cc 162B     		cmp	r3, #22
ARM GAS  C:\Users\Adeel\AppData\Local\Temp\ccys3HkN.s 			page 32


 785 01ce 05D8     		bhi	.L46
 982:.\Generated_Source\PSoC4/BLE_eventHandler.c ****             {
 983:.\Generated_Source\PSoC4/BLE_eventHandler.c ****                 cyBle_mtuSize = ((CYBLE_GATT_XCHG_MTU_PARAM_T *)eventParam)->mtu;
 786              		.loc 1 983 0
 787 01d0 3B1C     		mov	r3, r7
 788 01d2 0E33     		add	r3, r3, #14
 789 01d4 3A68     		ldr	r2, [r7]
 790 01d6 5288     		ldrh	r2, [r2, #2]
 791 01d8 1A80     		strh	r2, [r3]
 792 01da 03E0     		b	.L47
 793              	.L46:
 984:.\Generated_Source\PSoC4/BLE_eventHandler.c ****             }
 985:.\Generated_Source\PSoC4/BLE_eventHandler.c ****             else
 986:.\Generated_Source\PSoC4/BLE_eventHandler.c ****             {
 987:.\Generated_Source\PSoC4/BLE_eventHandler.c ****                 cyBle_mtuSize = CYBLE_GATT_MTU;
 794              		.loc 1 987 0
 795 01dc 3B1C     		mov	r3, r7
 796 01de 0E33     		add	r3, r3, #14
 797 01e0 1722     		mov	r2, #23
 798 01e2 1A80     		strh	r2, [r3]
 799              	.L47:
 988:.\Generated_Source\PSoC4/BLE_eventHandler.c ****             }
 989:.\Generated_Source\PSoC4/BLE_eventHandler.c ****             (void)CyBle_GattsExchangeMtuRsp(((CYBLE_GATT_XCHG_MTU_PARAM_T *)eventParam)->connHandle
 800              		.loc 1 989 0
 801 01e4 3B68     		ldr	r3, [r7]
 802 01e6 3A1C     		mov	r2, r7
 803 01e8 0E32     		add	r2, r2, #14
 804 01ea 1288     		ldrh	r2, [r2]
 805 01ec 1988     		ldrh	r1, [r3]
 806 01ee 0023     		mov	r3, #0
 807 01f0 0904     		lsl	r1, r1, #16
 808 01f2 090C     		lsr	r1, r1, #16
 809 01f4 1B0C     		lsr	r3, r3, #16
 810 01f6 1B04     		lsl	r3, r3, #16
 811 01f8 0B43     		orr	r3, r1
 812 01fa 181C     		mov	r0, r3
 813 01fc 111C     		mov	r1, r2
 814 01fe FFF7FEFF 		bl	CyBle_GattsExchangeMtuRsp
 815              	.LBE4:
 990:.\Generated_Source\PSoC4/BLE_eventHandler.c ****              }
 991:.\Generated_Source\PSoC4/BLE_eventHandler.c ****             break;
 816              		.loc 1 991 0
 817 0202 0AE0     		b	.L40
 818              	.L34:
 992:.\Generated_Source\PSoC4/BLE_eventHandler.c ****     #endif /* (CYBLE_GATT_ROLE_SERVER) || (CYBLE_GATT_ROLE_CLIENT) */
 993:.\Generated_Source\PSoC4/BLE_eventHandler.c ****     
 994:.\Generated_Source\PSoC4/BLE_eventHandler.c ****     #if (CYBLE_GATT_ROLE_CLIENT)
 995:.\Generated_Source\PSoC4/BLE_eventHandler.c ****         case CYBLE_EVT_GAPC_SCAN_PROGRESS_RESULT:
 996:.\Generated_Source\PSoC4/BLE_eventHandler.c ****         #ifdef CYBLE_CPS_CLIENT
 997:.\Generated_Source\PSoC4/BLE_eventHandler.c ****                 CyBle_CpscScanProcessEventHandler((CYBLE_GAPC_ADV_REPORT_T *)eventParam);
 998:.\Generated_Source\PSoC4/BLE_eventHandler.c ****         #endif /* defined(CYBLE_CPS_CLIENT) */
 999:.\Generated_Source\PSoC4/BLE_eventHandler.c ****             break;
1000:.\Generated_Source\PSoC4/BLE_eventHandler.c ****     #endif /* (CYBLE_GATT_ROLE_CLIENT) */
1001:.\Generated_Source\PSoC4/BLE_eventHandler.c **** 
1002:.\Generated_Source\PSoC4/BLE_eventHandler.c ****     #if(CYBLE_GATT_ROLE_SERVER)
1003:.\Generated_Source\PSoC4/BLE_eventHandler.c ****         case CYBLE_EVT_GATTS_WRITE_REQ:
1004:.\Generated_Source\PSoC4/BLE_eventHandler.c ****             CyBle_WriteReqHandler((CYBLE_GATTS_WRITE_REQ_PARAM_T *)eventParam);
ARM GAS  C:\Users\Adeel\AppData\Local\Temp\ccys3HkN.s 			page 33


 819              		.loc 1 1004 0
 820 0204 3B68     		ldr	r3, [r7]
 821 0206 181C     		mov	r0, r3
 822 0208 FFF7FEFF 		bl	CyBle_WriteReqHandler
1005:.\Generated_Source\PSoC4/BLE_eventHandler.c ****             break;
 823              		.loc 1 1005 0
 824 020c 05E0     		b	.L40
 825              	.L36:
1006:.\Generated_Source\PSoC4/BLE_eventHandler.c **** 
1007:.\Generated_Source\PSoC4/BLE_eventHandler.c ****         case CYBLE_EVT_GATTS_WRITE_CMD_REQ:
1008:.\Generated_Source\PSoC4/BLE_eventHandler.c ****         #if defined(CYBLE_IAS_SERVER)
1009:.\Generated_Source\PSoC4/BLE_eventHandler.c ****             if((cyBle_eventHandlerFlag & CYBLE_CALLBACK) != 0u)
1010:.\Generated_Source\PSoC4/BLE_eventHandler.c ****             {
1011:.\Generated_Source\PSoC4/BLE_eventHandler.c ****                 (void)CyBle_IassWriteCmdEventHandler((CYBLE_GATTS_WRITE_REQ_PARAM_T *)eventParam);
1012:.\Generated_Source\PSoC4/BLE_eventHandler.c ****             }
1013:.\Generated_Source\PSoC4/BLE_eventHandler.c ****         #endif /* defined(CYBLE_IAS_SERVER) */
1014:.\Generated_Source\PSoC4/BLE_eventHandler.c ****         #if defined(CYBLE_HIDS_SERVER)
1015:.\Generated_Source\PSoC4/BLE_eventHandler.c ****             if((cyBle_eventHandlerFlag & CYBLE_CALLBACK) != 0u)
1016:.\Generated_Source\PSoC4/BLE_eventHandler.c ****             {
1017:.\Generated_Source\PSoC4/BLE_eventHandler.c ****                 (void)CyBle_HidssWriteEventHandler((CYBLE_GATTS_WRITE_REQ_PARAM_T *)eventParam);
1018:.\Generated_Source\PSoC4/BLE_eventHandler.c ****             }
1019:.\Generated_Source\PSoC4/BLE_eventHandler.c ****         #endif /* defined(CYBLE_HIDS_SERVER) */
1020:.\Generated_Source\PSoC4/BLE_eventHandler.c ****         #if defined(CYBLE_PASS_SERVER)
1021:.\Generated_Source\PSoC4/BLE_eventHandler.c ****             if((cyBle_eventHandlerFlag & CYBLE_CALLBACK) != 0u)
1022:.\Generated_Source\PSoC4/BLE_eventHandler.c ****             {
1023:.\Generated_Source\PSoC4/BLE_eventHandler.c ****                 (void)CyBle_PasssWriteCmdEventHandler((CYBLE_GATTS_WRITE_REQ_PARAM_T *)eventParam);
1024:.\Generated_Source\PSoC4/BLE_eventHandler.c ****             }
1025:.\Generated_Source\PSoC4/BLE_eventHandler.c ****         #endif /* defined(CYBLE_PASS_SERVER) */
1026:.\Generated_Source\PSoC4/BLE_eventHandler.c ****         #if defined(CYBLE_RTUS_SERVER)
1027:.\Generated_Source\PSoC4/BLE_eventHandler.c ****             if((cyBle_eventHandlerFlag & CYBLE_CALLBACK) != 0u)
1028:.\Generated_Source\PSoC4/BLE_eventHandler.c ****             {
1029:.\Generated_Source\PSoC4/BLE_eventHandler.c ****                 (void)CyBle_RtussWriteCmdEventHandler((CYBLE_GATTS_WRITE_REQ_PARAM_T *)eventParam);
1030:.\Generated_Source\PSoC4/BLE_eventHandler.c ****             }
1031:.\Generated_Source\PSoC4/BLE_eventHandler.c ****         #endif /* defined(CYBLE_RTUS_SERVER) */
1032:.\Generated_Source\PSoC4/BLE_eventHandler.c ****         #if defined(CYBLE_SCPS_SERVER)
1033:.\Generated_Source\PSoC4/BLE_eventHandler.c ****             if((cyBle_eventHandlerFlag & CYBLE_CALLBACK) != 0u)
1034:.\Generated_Source\PSoC4/BLE_eventHandler.c ****             {
1035:.\Generated_Source\PSoC4/BLE_eventHandler.c ****                 (void)CyBle_ScpssWriteEventHandler((CYBLE_GATTS_WRITE_REQ_PARAM_T *)eventParam);
1036:.\Generated_Source\PSoC4/BLE_eventHandler.c ****             }
1037:.\Generated_Source\PSoC4/BLE_eventHandler.c ****         #endif /* defined(CYBLE_SCPS_SERVER) */
1038:.\Generated_Source\PSoC4/BLE_eventHandler.c ****             break;
1039:.\Generated_Source\PSoC4/BLE_eventHandler.c ****             
1040:.\Generated_Source\PSoC4/BLE_eventHandler.c ****         case CYBLE_EVT_GATTS_HANDLE_VALUE_CNF:
1041:.\Generated_Source\PSoC4/BLE_eventHandler.c ****             CyBle_ValueConfirmation((CYBLE_CONN_HANDLE_T *)eventParam);
 826              		.loc 1 1041 0
 827 020e 3B68     		ldr	r3, [r7]
 828 0210 181C     		mov	r0, r3
 829 0212 FFF7FEFF 		bl	CyBle_ValueConfirmation
1042:.\Generated_Source\PSoC4/BLE_eventHandler.c ****             break;
 830              		.loc 1 1042 0
 831 0216 00E0     		b	.L40
 832              	.L49:
1043:.\Generated_Source\PSoC4/BLE_eventHandler.c ****     #endif /* CYBLE_GATT_ROLE_SERVER */
1044:.\Generated_Source\PSoC4/BLE_eventHandler.c **** 
1045:.\Generated_Source\PSoC4/BLE_eventHandler.c ****     #if (CYBLE_GATT_ROLE_CLIENT)
1046:.\Generated_Source\PSoC4/BLE_eventHandler.c ****         case CYBLE_EVT_GATTC_READ_BY_GROUP_TYPE_RSP:
1047:.\Generated_Source\PSoC4/BLE_eventHandler.c ****             CyBle_ReadByGroupEventHandler((CYBLE_GATTC_READ_BY_GRP_RSP_PARAM_T *)eventParam);
ARM GAS  C:\Users\Adeel\AppData\Local\Temp\ccys3HkN.s 			page 34


1048:.\Generated_Source\PSoC4/BLE_eventHandler.c ****             break;
1049:.\Generated_Source\PSoC4/BLE_eventHandler.c **** 
1050:.\Generated_Source\PSoC4/BLE_eventHandler.c ****         case CYBLE_EVT_GATTC_READ_BY_TYPE_RSP:
1051:.\Generated_Source\PSoC4/BLE_eventHandler.c ****             CyBle_ReadByTypeEventHandler((CYBLE_GATTC_READ_BY_TYPE_RSP_PARAM_T *)eventParam);
1052:.\Generated_Source\PSoC4/BLE_eventHandler.c ****             break;
1053:.\Generated_Source\PSoC4/BLE_eventHandler.c **** 
1054:.\Generated_Source\PSoC4/BLE_eventHandler.c ****         case CYBLE_EVT_GATTC_FIND_INFO_RSP:
1055:.\Generated_Source\PSoC4/BLE_eventHandler.c ****             CyBle_FindInfoEventHandler((CYBLE_GATTC_FIND_INFO_RSP_PARAM_T *)eventParam);
1056:.\Generated_Source\PSoC4/BLE_eventHandler.c ****             break;
1057:.\Generated_Source\PSoC4/BLE_eventHandler.c **** 
1058:.\Generated_Source\PSoC4/BLE_eventHandler.c ****         case CYBLE_EVT_GATTC_ERROR_RSP:
1059:.\Generated_Source\PSoC4/BLE_eventHandler.c ****             CyBle_ErrorResponseEventHandler((CYBLE_GATTC_ERR_RSP_PARAM_T *)eventParam);
1060:.\Generated_Source\PSoC4/BLE_eventHandler.c ****             break;
1061:.\Generated_Source\PSoC4/BLE_eventHandler.c **** 
1062:.\Generated_Source\PSoC4/BLE_eventHandler.c ****         case CYBLE_EVT_GATTC_HANDLE_VALUE_NTF:
1063:.\Generated_Source\PSoC4/BLE_eventHandler.c ****         #ifdef CYBLE_ANS_CLIENT
1064:.\Generated_Source\PSoC4/BLE_eventHandler.c ****             CyBle_AnscNotificationEventHandler((CYBLE_GATTC_HANDLE_VALUE_NTF_PARAM_T *)eventParam);
1065:.\Generated_Source\PSoC4/BLE_eventHandler.c ****         #endif /* defined(CYBLE_ANS_CLIENT) */
1066:.\Generated_Source\PSoC4/BLE_eventHandler.c ****         #ifdef CYBLE_BAS_CLIENT
1067:.\Generated_Source\PSoC4/BLE_eventHandler.c ****             if((cyBle_eventHandlerFlag & CYBLE_CALLBACK) != 0u)
1068:.\Generated_Source\PSoC4/BLE_eventHandler.c ****             {
1069:.\Generated_Source\PSoC4/BLE_eventHandler.c ****                 CyBle_BascNotificationEventHandler((CYBLE_GATTC_HANDLE_VALUE_NTF_PARAM_T *)eventPar
1070:.\Generated_Source\PSoC4/BLE_eventHandler.c ****             }
1071:.\Generated_Source\PSoC4/BLE_eventHandler.c ****         #endif /* defined(CYBLE_BAS_CLIENT) */
1072:.\Generated_Source\PSoC4/BLE_eventHandler.c ****         #ifdef CYBLE_BLS_CLIENT
1073:.\Generated_Source\PSoC4/BLE_eventHandler.c ****             if((cyBle_eventHandlerFlag & CYBLE_CALLBACK) != 0u)
1074:.\Generated_Source\PSoC4/BLE_eventHandler.c ****             {
1075:.\Generated_Source\PSoC4/BLE_eventHandler.c ****                 CyBle_BlscNotificationEventHandler((CYBLE_GATTC_HANDLE_VALUE_NTF_PARAM_T *)eventPar
1076:.\Generated_Source\PSoC4/BLE_eventHandler.c ****             }
1077:.\Generated_Source\PSoC4/BLE_eventHandler.c ****         #endif /* defined(CYBLE_BLS_CLIENT) */
1078:.\Generated_Source\PSoC4/BLE_eventHandler.c ****         #ifdef CYBLE_CPS_CLIENT
1079:.\Generated_Source\PSoC4/BLE_eventHandler.c ****             if((cyBle_eventHandlerFlag & CYBLE_CALLBACK) != 0u)
1080:.\Generated_Source\PSoC4/BLE_eventHandler.c ****             {
1081:.\Generated_Source\PSoC4/BLE_eventHandler.c ****                 CyBle_CpscNotificationEventHandler((CYBLE_GATTC_HANDLE_VALUE_NTF_PARAM_T *)eventPar
1082:.\Generated_Source\PSoC4/BLE_eventHandler.c ****             }
1083:.\Generated_Source\PSoC4/BLE_eventHandler.c ****         #endif /* defined(CYBLE_CPS_CLIENT) */
1084:.\Generated_Source\PSoC4/BLE_eventHandler.c ****         #ifdef CYBLE_CSCS_CLIENT
1085:.\Generated_Source\PSoC4/BLE_eventHandler.c ****             if((cyBle_eventHandlerFlag & CYBLE_CALLBACK) != 0u)
1086:.\Generated_Source\PSoC4/BLE_eventHandler.c ****             {
1087:.\Generated_Source\PSoC4/BLE_eventHandler.c ****                 CyBle_CscscNotificationEventHandler((CYBLE_GATTC_HANDLE_VALUE_NTF_PARAM_T *)eventPa
1088:.\Generated_Source\PSoC4/BLE_eventHandler.c ****             }
1089:.\Generated_Source\PSoC4/BLE_eventHandler.c ****         #endif /* defined(CYBLE_CSCS_CLIENT) */
1090:.\Generated_Source\PSoC4/BLE_eventHandler.c ****         #ifdef CYBLE_CTS_CLIENT
1091:.\Generated_Source\PSoC4/BLE_eventHandler.c ****             if((cyBle_eventHandlerFlag & CYBLE_CALLBACK) != 0u)
1092:.\Generated_Source\PSoC4/BLE_eventHandler.c ****             {
1093:.\Generated_Source\PSoC4/BLE_eventHandler.c ****                 CyBle_CtscNotificationEventHandler((CYBLE_GATTC_HANDLE_VALUE_NTF_PARAM_T *)eventPar
1094:.\Generated_Source\PSoC4/BLE_eventHandler.c ****             }
1095:.\Generated_Source\PSoC4/BLE_eventHandler.c ****         #endif /* defined(CYBLE_CTS_CLIENT) */
1096:.\Generated_Source\PSoC4/BLE_eventHandler.c ****         #ifdef CYBLE_GLS_CLIENT
1097:.\Generated_Source\PSoC4/BLE_eventHandler.c ****             if((cyBle_eventHandlerFlag & CYBLE_CALLBACK) != 0u)
1098:.\Generated_Source\PSoC4/BLE_eventHandler.c ****             {
1099:.\Generated_Source\PSoC4/BLE_eventHandler.c ****                 CyBle_GlscNotificationEventHandler((CYBLE_GATTC_HANDLE_VALUE_NTF_PARAM_T *)eventPar
1100:.\Generated_Source\PSoC4/BLE_eventHandler.c ****             }
1101:.\Generated_Source\PSoC4/BLE_eventHandler.c ****         #endif /* defined(CYBLE_GLS_CLIENT) */
1102:.\Generated_Source\PSoC4/BLE_eventHandler.c ****         #ifdef CYBLE_HIDS_CLIENT
1103:.\Generated_Source\PSoC4/BLE_eventHandler.c ****             if((cyBle_eventHandlerFlag & CYBLE_CALLBACK) != 0u)
1104:.\Generated_Source\PSoC4/BLE_eventHandler.c ****             {
ARM GAS  C:\Users\Adeel\AppData\Local\Temp\ccys3HkN.s 			page 35


1105:.\Generated_Source\PSoC4/BLE_eventHandler.c ****                 CyBle_HidscNotificationEventHandler((CYBLE_GATTC_HANDLE_VALUE_NTF_PARAM_T *)eventPa
1106:.\Generated_Source\PSoC4/BLE_eventHandler.c ****             }
1107:.\Generated_Source\PSoC4/BLE_eventHandler.c ****         #endif /* defined(CYBLE_HIDS_CLIENT) */
1108:.\Generated_Source\PSoC4/BLE_eventHandler.c ****         #ifdef CYBLE_HRS_CLIENT
1109:.\Generated_Source\PSoC4/BLE_eventHandler.c ****             if((cyBle_eventHandlerFlag & CYBLE_CALLBACK) != 0u)
1110:.\Generated_Source\PSoC4/BLE_eventHandler.c ****             {
1111:.\Generated_Source\PSoC4/BLE_eventHandler.c ****                 CyBle_HrscNotificationEventHandler((CYBLE_GATTC_HANDLE_VALUE_NTF_PARAM_T *)eventPar
1112:.\Generated_Source\PSoC4/BLE_eventHandler.c ****             }
1113:.\Generated_Source\PSoC4/BLE_eventHandler.c ****         #endif /* defined(CYBLE_HRS_CLIENT) */
1114:.\Generated_Source\PSoC4/BLE_eventHandler.c ****         #ifdef CYBLE_HTS_CLIENT
1115:.\Generated_Source\PSoC4/BLE_eventHandler.c ****             if((cyBle_eventHandlerFlag & CYBLE_CALLBACK) != 0u)
1116:.\Generated_Source\PSoC4/BLE_eventHandler.c ****             {
1117:.\Generated_Source\PSoC4/BLE_eventHandler.c ****                 CyBle_HtscNotificationEventHandler((CYBLE_GATTC_HANDLE_VALUE_NTF_PARAM_T *)eventPar
1118:.\Generated_Source\PSoC4/BLE_eventHandler.c ****             }
1119:.\Generated_Source\PSoC4/BLE_eventHandler.c ****         #endif /* defined(CYBLE_HTS_CLIENT) */
1120:.\Generated_Source\PSoC4/BLE_eventHandler.c ****         #ifdef CYBLE_LNS_CLIENT
1121:.\Generated_Source\PSoC4/BLE_eventHandler.c ****             if((cyBle_eventHandlerFlag & CYBLE_CALLBACK) != 0u)
1122:.\Generated_Source\PSoC4/BLE_eventHandler.c ****             {
1123:.\Generated_Source\PSoC4/BLE_eventHandler.c ****                 CyBle_LnscNotificationEventHandler((CYBLE_GATTC_HANDLE_VALUE_NTF_PARAM_T *)eventPar
1124:.\Generated_Source\PSoC4/BLE_eventHandler.c ****             }
1125:.\Generated_Source\PSoC4/BLE_eventHandler.c ****         #endif /* defined(CYBLE_LNS_CLIENT) */
1126:.\Generated_Source\PSoC4/BLE_eventHandler.c ****         #ifdef CYBLE_PASS_CLIENT
1127:.\Generated_Source\PSoC4/BLE_eventHandler.c ****             if((cyBle_eventHandlerFlag & CYBLE_CALLBACK) != 0u)
1128:.\Generated_Source\PSoC4/BLE_eventHandler.c ****             {
1129:.\Generated_Source\PSoC4/BLE_eventHandler.c ****                 CyBle_PasscNotificationEventHandler((CYBLE_GATTC_HANDLE_VALUE_NTF_PARAM_T *)eventPa
1130:.\Generated_Source\PSoC4/BLE_eventHandler.c ****             }
1131:.\Generated_Source\PSoC4/BLE_eventHandler.c ****         #endif /* defined(CYBLE_PASS_CLIENT) */
1132:.\Generated_Source\PSoC4/BLE_eventHandler.c ****         #ifdef CYBLE_RSCS_CLIENT
1133:.\Generated_Source\PSoC4/BLE_eventHandler.c ****             if((cyBle_eventHandlerFlag & CYBLE_CALLBACK) != 0u)
1134:.\Generated_Source\PSoC4/BLE_eventHandler.c ****             {
1135:.\Generated_Source\PSoC4/BLE_eventHandler.c ****                 CyBle_RscscNotificationEventHandler((CYBLE_GATTC_HANDLE_VALUE_NTF_PARAM_T *)eventPa
1136:.\Generated_Source\PSoC4/BLE_eventHandler.c ****             }
1137:.\Generated_Source\PSoC4/BLE_eventHandler.c ****         #endif /* defined(CYBLE_RSCS_CLIENT) */
1138:.\Generated_Source\PSoC4/BLE_eventHandler.c ****         #ifdef CYBLE_SCPS_CLIENT
1139:.\Generated_Source\PSoC4/BLE_eventHandler.c ****             if((cyBle_eventHandlerFlag & CYBLE_CALLBACK) != 0u)
1140:.\Generated_Source\PSoC4/BLE_eventHandler.c ****             {
1141:.\Generated_Source\PSoC4/BLE_eventHandler.c ****                 CyBle_ScpscNotificationEventHandler((CYBLE_GATTC_HANDLE_VALUE_NTF_PARAM_T *)eventPa
1142:.\Generated_Source\PSoC4/BLE_eventHandler.c ****             }
1143:.\Generated_Source\PSoC4/BLE_eventHandler.c ****         #endif /* defined(CYBLE_SCPS_CLIENT) */
1144:.\Generated_Source\PSoC4/BLE_eventHandler.c ****         #ifdef CYBLE_TPS_CLIENT
1145:.\Generated_Source\PSoC4/BLE_eventHandler.c ****             if((cyBle_eventHandlerFlag & CYBLE_CALLBACK) != 0u)
1146:.\Generated_Source\PSoC4/BLE_eventHandler.c ****             {
1147:.\Generated_Source\PSoC4/BLE_eventHandler.c ****                 CyBle_TpscNotificationEventHandler((CYBLE_GATTC_HANDLE_VALUE_NTF_PARAM_T *)eventPar
1148:.\Generated_Source\PSoC4/BLE_eventHandler.c ****             }
1149:.\Generated_Source\PSoC4/BLE_eventHandler.c ****         #endif /* defined(CYBLE_TPS_CLIENT) */
1150:.\Generated_Source\PSoC4/BLE_eventHandler.c ****             break;
1151:.\Generated_Source\PSoC4/BLE_eventHandler.c **** 
1152:.\Generated_Source\PSoC4/BLE_eventHandler.c ****         case CYBLE_EVT_GATTC_HANDLE_VALUE_IND:
1153:.\Generated_Source\PSoC4/BLE_eventHandler.c ****             CyBle_GattcIndicationEventHandler((CYBLE_GATTC_HANDLE_VALUE_IND_PARAM_T *)eventParam);
1154:.\Generated_Source\PSoC4/BLE_eventHandler.c ****         #ifdef CYBLE_BLS_CLIENT
1155:.\Generated_Source\PSoC4/BLE_eventHandler.c ****             if((cyBle_eventHandlerFlag & CYBLE_CALLBACK) != 0u)
1156:.\Generated_Source\PSoC4/BLE_eventHandler.c ****             {
1157:.\Generated_Source\PSoC4/BLE_eventHandler.c ****                 CyBle_BlscIndicationEventHandler((CYBLE_GATTC_HANDLE_VALUE_IND_PARAM_T *)eventParam
1158:.\Generated_Source\PSoC4/BLE_eventHandler.c ****             }
1159:.\Generated_Source\PSoC4/BLE_eventHandler.c ****         #endif /* defined(CYBLE_BLS_CLIENT) */
1160:.\Generated_Source\PSoC4/BLE_eventHandler.c ****         #ifdef CYBLE_CPS_CLIENT
1161:.\Generated_Source\PSoC4/BLE_eventHandler.c ****             if((cyBle_eventHandlerFlag & CYBLE_CALLBACK) != 0u)
ARM GAS  C:\Users\Adeel\AppData\Local\Temp\ccys3HkN.s 			page 36


1162:.\Generated_Source\PSoC4/BLE_eventHandler.c ****             {
1163:.\Generated_Source\PSoC4/BLE_eventHandler.c ****                 CyBle_CpscIndicationEventHandler((CYBLE_GATTC_HANDLE_VALUE_IND_PARAM_T *)eventParam
1164:.\Generated_Source\PSoC4/BLE_eventHandler.c ****             }
1165:.\Generated_Source\PSoC4/BLE_eventHandler.c ****         #endif /* defined(CYBLE_CPS_CLIENT) */
1166:.\Generated_Source\PSoC4/BLE_eventHandler.c ****         #ifdef CYBLE_CSCS_CLIENT
1167:.\Generated_Source\PSoC4/BLE_eventHandler.c ****             if((cyBle_eventHandlerFlag & CYBLE_CALLBACK) != 0u)
1168:.\Generated_Source\PSoC4/BLE_eventHandler.c ****             {
1169:.\Generated_Source\PSoC4/BLE_eventHandler.c ****                 CyBle_CscscIndicationEventHandler((CYBLE_GATTC_HANDLE_VALUE_IND_PARAM_T *)eventPara
1170:.\Generated_Source\PSoC4/BLE_eventHandler.c ****             }
1171:.\Generated_Source\PSoC4/BLE_eventHandler.c ****         #endif /* defined(CYBLE_CSCS_CLIENT) */
1172:.\Generated_Source\PSoC4/BLE_eventHandler.c ****         #ifdef CYBLE_GLS_CLIENT
1173:.\Generated_Source\PSoC4/BLE_eventHandler.c ****             if((cyBle_eventHandlerFlag & CYBLE_CALLBACK) != 0u)
1174:.\Generated_Source\PSoC4/BLE_eventHandler.c ****             {
1175:.\Generated_Source\PSoC4/BLE_eventHandler.c ****                 CyBle_GlscIndicationEventHandler((CYBLE_GATTC_HANDLE_VALUE_IND_PARAM_T *)eventParam
1176:.\Generated_Source\PSoC4/BLE_eventHandler.c ****             }
1177:.\Generated_Source\PSoC4/BLE_eventHandler.c ****         #endif /* defined(CYBLE_GLS_CLIENT) */
1178:.\Generated_Source\PSoC4/BLE_eventHandler.c ****         #ifdef CYBLE_HTS_CLIENT
1179:.\Generated_Source\PSoC4/BLE_eventHandler.c ****             if((cyBle_eventHandlerFlag & CYBLE_CALLBACK) != 0u)
1180:.\Generated_Source\PSoC4/BLE_eventHandler.c ****             {
1181:.\Generated_Source\PSoC4/BLE_eventHandler.c ****                 CyBle_HtscIndicationEventHandler((CYBLE_GATTC_HANDLE_VALUE_IND_PARAM_T *)eventParam
1182:.\Generated_Source\PSoC4/BLE_eventHandler.c ****             }
1183:.\Generated_Source\PSoC4/BLE_eventHandler.c ****         #endif /* defined(CYBLE_HTS_CLIENT) */
1184:.\Generated_Source\PSoC4/BLE_eventHandler.c ****         #ifdef CYBLE_LNS_CLIENT
1185:.\Generated_Source\PSoC4/BLE_eventHandler.c ****             if((cyBle_eventHandlerFlag & CYBLE_CALLBACK) != 0u)
1186:.\Generated_Source\PSoC4/BLE_eventHandler.c ****             {
1187:.\Generated_Source\PSoC4/BLE_eventHandler.c ****                 CyBle_LnscIndicationEventHandler((CYBLE_GATTC_HANDLE_VALUE_IND_PARAM_T *)eventParam
1188:.\Generated_Source\PSoC4/BLE_eventHandler.c ****             }
1189:.\Generated_Source\PSoC4/BLE_eventHandler.c ****         #endif /* defined(CYBLE_LNS_CLIENT) */
1190:.\Generated_Source\PSoC4/BLE_eventHandler.c ****         #ifdef CYBLE_RSCS_CLIENT
1191:.\Generated_Source\PSoC4/BLE_eventHandler.c ****             if((cyBle_eventHandlerFlag & CYBLE_CALLBACK) != 0u)
1192:.\Generated_Source\PSoC4/BLE_eventHandler.c ****             {
1193:.\Generated_Source\PSoC4/BLE_eventHandler.c ****                 CyBle_RscscIndicationEventHandler((CYBLE_GATTC_HANDLE_VALUE_IND_PARAM_T *)eventPara
1194:.\Generated_Source\PSoC4/BLE_eventHandler.c ****             }
1195:.\Generated_Source\PSoC4/BLE_eventHandler.c ****         #endif /* defined(CYBLE_RSCS_CLIENT) */
1196:.\Generated_Source\PSoC4/BLE_eventHandler.c ****             /* Respond with a Handle Value Confirmation when request handled */
1197:.\Generated_Source\PSoC4/BLE_eventHandler.c ****             if((cyBle_eventHandlerFlag & CYBLE_CALLBACK) == 0u)
1198:.\Generated_Source\PSoC4/BLE_eventHandler.c ****             {
1199:.\Generated_Source\PSoC4/BLE_eventHandler.c ****                 (void)CyBle_GattcConfirmation(((CYBLE_GATTC_HANDLE_VALUE_IND_PARAM_T *)eventParam)-
1200:.\Generated_Source\PSoC4/BLE_eventHandler.c ****             }
1201:.\Generated_Source\PSoC4/BLE_eventHandler.c ****             break;
1202:.\Generated_Source\PSoC4/BLE_eventHandler.c ****         
1203:.\Generated_Source\PSoC4/BLE_eventHandler.c ****         case CYBLE_EVT_GATTC_READ_RSP:
1204:.\Generated_Source\PSoC4/BLE_eventHandler.c ****             #ifdef CYBLE_ANS_CLIENT
1205:.\Generated_Source\PSoC4/BLE_eventHandler.c ****                 CyBle_AnscReadResponseEventHandler((CYBLE_GATTC_READ_RSP_PARAM_T *)eventParam);
1206:.\Generated_Source\PSoC4/BLE_eventHandler.c ****             #endif /* CYBLE_ANS_CLIENT */
1207:.\Generated_Source\PSoC4/BLE_eventHandler.c ****             #ifdef CYBLE_BAS_CLIENT
1208:.\Generated_Source\PSoC4/BLE_eventHandler.c ****                 if((cyBle_eventHandlerFlag & CYBLE_CALLBACK) != 0u)
1209:.\Generated_Source\PSoC4/BLE_eventHandler.c ****                 {
1210:.\Generated_Source\PSoC4/BLE_eventHandler.c ****                     CyBle_BascReadResponseEventHandler((CYBLE_GATTC_READ_RSP_PARAM_T *)eventParam);
1211:.\Generated_Source\PSoC4/BLE_eventHandler.c ****                 }
1212:.\Generated_Source\PSoC4/BLE_eventHandler.c ****             #endif /* CYBLE_BAS_CLIENT */
1213:.\Generated_Source\PSoC4/BLE_eventHandler.c ****             #ifdef CYBLE_BLS_CLIENT
1214:.\Generated_Source\PSoC4/BLE_eventHandler.c ****                 if((cyBle_eventHandlerFlag & CYBLE_CALLBACK) != 0u)
1215:.\Generated_Source\PSoC4/BLE_eventHandler.c ****                 {
1216:.\Generated_Source\PSoC4/BLE_eventHandler.c ****                     CyBle_BlscReadResponseEventHandler((CYBLE_GATTC_READ_RSP_PARAM_T *)eventParam);
1217:.\Generated_Source\PSoC4/BLE_eventHandler.c ****                 }
1218:.\Generated_Source\PSoC4/BLE_eventHandler.c ****             #endif /* CYBLE_BLS_CLIENT */
ARM GAS  C:\Users\Adeel\AppData\Local\Temp\ccys3HkN.s 			page 37


1219:.\Generated_Source\PSoC4/BLE_eventHandler.c ****             #ifdef CYBLE_CPS_CLIENT
1220:.\Generated_Source\PSoC4/BLE_eventHandler.c ****                 if((cyBle_eventHandlerFlag & CYBLE_CALLBACK) != 0u)
1221:.\Generated_Source\PSoC4/BLE_eventHandler.c ****                 {
1222:.\Generated_Source\PSoC4/BLE_eventHandler.c ****                     CyBle_CpscReadResponseEventHandler((CYBLE_GATTC_READ_RSP_PARAM_T *)eventParam);
1223:.\Generated_Source\PSoC4/BLE_eventHandler.c ****                 }
1224:.\Generated_Source\PSoC4/BLE_eventHandler.c ****             #endif /* CYBLE_CPS_CLIENT */
1225:.\Generated_Source\PSoC4/BLE_eventHandler.c ****             #ifdef CYBLE_CSCS_CLIENT
1226:.\Generated_Source\PSoC4/BLE_eventHandler.c ****                 if((cyBle_eventHandlerFlag & CYBLE_CALLBACK) != 0u)
1227:.\Generated_Source\PSoC4/BLE_eventHandler.c ****                 {
1228:.\Generated_Source\PSoC4/BLE_eventHandler.c ****                     CyBle_CscscReadResponseEventHandler((CYBLE_GATTC_READ_RSP_PARAM_T *)eventParam)
1229:.\Generated_Source\PSoC4/BLE_eventHandler.c ****                 }
1230:.\Generated_Source\PSoC4/BLE_eventHandler.c ****             #endif /* CYBLE_CSCS_CLIENT */
1231:.\Generated_Source\PSoC4/BLE_eventHandler.c ****             #ifdef CYBLE_CTS_CLIENT
1232:.\Generated_Source\PSoC4/BLE_eventHandler.c ****                 if((cyBle_eventHandlerFlag & CYBLE_CALLBACK) != 0u)
1233:.\Generated_Source\PSoC4/BLE_eventHandler.c ****                 {
1234:.\Generated_Source\PSoC4/BLE_eventHandler.c ****                     CyBle_CtscReadResponseEventHandler((CYBLE_GATTC_READ_RSP_PARAM_T *)eventParam);
1235:.\Generated_Source\PSoC4/BLE_eventHandler.c ****                 }
1236:.\Generated_Source\PSoC4/BLE_eventHandler.c ****             #endif /* CYBLE_BAS_CLIENT */
1237:.\Generated_Source\PSoC4/BLE_eventHandler.c ****             #ifdef CYBLE_DIS_CLIENT
1238:.\Generated_Source\PSoC4/BLE_eventHandler.c ****                 if((cyBle_eventHandlerFlag & CYBLE_CALLBACK) != 0u)
1239:.\Generated_Source\PSoC4/BLE_eventHandler.c ****                 {
1240:.\Generated_Source\PSoC4/BLE_eventHandler.c ****                     CyBle_DiscReadResponseEventHandler((CYBLE_GATTC_READ_RSP_PARAM_T *)eventParam);
1241:.\Generated_Source\PSoC4/BLE_eventHandler.c ****                 }
1242:.\Generated_Source\PSoC4/BLE_eventHandler.c ****             #endif /* CYBLE_DIS_CLIENT */
1243:.\Generated_Source\PSoC4/BLE_eventHandler.c ****             #ifdef CYBLE_GLS_CLIENT
1244:.\Generated_Source\PSoC4/BLE_eventHandler.c ****                 if((cyBle_eventHandlerFlag & CYBLE_CALLBACK) != 0u)
1245:.\Generated_Source\PSoC4/BLE_eventHandler.c ****                 {
1246:.\Generated_Source\PSoC4/BLE_eventHandler.c ****                     CyBle_GlscReadResponseEventHandler((CYBLE_GATTC_READ_RSP_PARAM_T *)eventParam);
1247:.\Generated_Source\PSoC4/BLE_eventHandler.c ****                 }
1248:.\Generated_Source\PSoC4/BLE_eventHandler.c ****             #endif /* CYBLE_GLS_CLIENT */
1249:.\Generated_Source\PSoC4/BLE_eventHandler.c ****             #ifdef CYBLE_HIDS_CLIENT
1250:.\Generated_Source\PSoC4/BLE_eventHandler.c ****                 if((cyBle_eventHandlerFlag & CYBLE_CALLBACK) != 0u)
1251:.\Generated_Source\PSoC4/BLE_eventHandler.c ****                 {
1252:.\Generated_Source\PSoC4/BLE_eventHandler.c ****                     CyBle_HidscReadResponseEventHandler((CYBLE_GATTC_READ_RSP_PARAM_T *)eventParam)
1253:.\Generated_Source\PSoC4/BLE_eventHandler.c ****                 }
1254:.\Generated_Source\PSoC4/BLE_eventHandler.c ****             #endif /* CYBLE_HIDS_CLIENT */
1255:.\Generated_Source\PSoC4/BLE_eventHandler.c ****             #ifdef CYBLE_HRS_CLIENT
1256:.\Generated_Source\PSoC4/BLE_eventHandler.c ****                 if((cyBle_eventHandlerFlag & CYBLE_CALLBACK) != 0u)
1257:.\Generated_Source\PSoC4/BLE_eventHandler.c ****                 {
1258:.\Generated_Source\PSoC4/BLE_eventHandler.c ****                     CyBle_HrscReadResponseEventHandler((CYBLE_GATTC_READ_RSP_PARAM_T *)eventParam);
1259:.\Generated_Source\PSoC4/BLE_eventHandler.c ****                 }
1260:.\Generated_Source\PSoC4/BLE_eventHandler.c ****             #endif /* CYBLE_HRS_CLIENT */
1261:.\Generated_Source\PSoC4/BLE_eventHandler.c ****             #ifdef CYBLE_HTS_CLIENT
1262:.\Generated_Source\PSoC4/BLE_eventHandler.c ****                 if((cyBle_eventHandlerFlag & CYBLE_CALLBACK) != 0u)
1263:.\Generated_Source\PSoC4/BLE_eventHandler.c ****                 {
1264:.\Generated_Source\PSoC4/BLE_eventHandler.c ****                     CyBle_HtscReadResponseEventHandler((CYBLE_GATTC_READ_RSP_PARAM_T *)eventParam);
1265:.\Generated_Source\PSoC4/BLE_eventHandler.c ****                 }
1266:.\Generated_Source\PSoC4/BLE_eventHandler.c ****             #endif /* CYBLE_HTS_CLIENT */
1267:.\Generated_Source\PSoC4/BLE_eventHandler.c ****             #ifdef CYBLE_LLS_CLIENT
1268:.\Generated_Source\PSoC4/BLE_eventHandler.c ****                 if((cyBle_eventHandlerFlag & CYBLE_CALLBACK) != 0u)
1269:.\Generated_Source\PSoC4/BLE_eventHandler.c ****                 {
1270:.\Generated_Source\PSoC4/BLE_eventHandler.c ****                     CyBle_LlscReadResponseEventHandler((CYBLE_GATTC_READ_RSP_PARAM_T *)eventParam);
1271:.\Generated_Source\PSoC4/BLE_eventHandler.c ****                 }
1272:.\Generated_Source\PSoC4/BLE_eventHandler.c ****             #endif /* CYBLE_LLS_CLIENT */
1273:.\Generated_Source\PSoC4/BLE_eventHandler.c ****             #ifdef CYBLE_LNS_CLIENT
1274:.\Generated_Source\PSoC4/BLE_eventHandler.c ****                 if((cyBle_eventHandlerFlag & CYBLE_CALLBACK) != 0u)
1275:.\Generated_Source\PSoC4/BLE_eventHandler.c ****                 {
ARM GAS  C:\Users\Adeel\AppData\Local\Temp\ccys3HkN.s 			page 38


1276:.\Generated_Source\PSoC4/BLE_eventHandler.c ****                     CyBle_LnscReadResponseEventHandler((CYBLE_GATTC_READ_RSP_PARAM_T *)eventParam);
1277:.\Generated_Source\PSoC4/BLE_eventHandler.c ****                 }
1278:.\Generated_Source\PSoC4/BLE_eventHandler.c ****             #endif /* CYBLE_LNS_CLIENT */
1279:.\Generated_Source\PSoC4/BLE_eventHandler.c ****             #ifdef CYBLE_NDCS_CLIENT
1280:.\Generated_Source\PSoC4/BLE_eventHandler.c ****                 if((cyBle_eventHandlerFlag & CYBLE_CALLBACK) != 0u)
1281:.\Generated_Source\PSoC4/BLE_eventHandler.c ****                 {
1282:.\Generated_Source\PSoC4/BLE_eventHandler.c ****                     CyBle_NdcscReadResponseEventHandler((CYBLE_GATTC_READ_RSP_PARAM_T *)eventParam)
1283:.\Generated_Source\PSoC4/BLE_eventHandler.c ****                 }
1284:.\Generated_Source\PSoC4/BLE_eventHandler.c ****             #endif /* CYBLE_NDCS_CLIENT */
1285:.\Generated_Source\PSoC4/BLE_eventHandler.c ****             #ifdef CYBLE_PASS_CLIENT
1286:.\Generated_Source\PSoC4/BLE_eventHandler.c ****                 if((cyBle_eventHandlerFlag & CYBLE_CALLBACK) != 0u)
1287:.\Generated_Source\PSoC4/BLE_eventHandler.c ****                 {
1288:.\Generated_Source\PSoC4/BLE_eventHandler.c ****                     CyBle_PasscReadResponseEventHandler((CYBLE_GATTC_READ_RSP_PARAM_T *)eventParam)
1289:.\Generated_Source\PSoC4/BLE_eventHandler.c ****                 }
1290:.\Generated_Source\PSoC4/BLE_eventHandler.c ****             #endif /* CYBLE_PASS_CLIENT */
1291:.\Generated_Source\PSoC4/BLE_eventHandler.c ****             #ifdef CYBLE_RSCS_CLIENT
1292:.\Generated_Source\PSoC4/BLE_eventHandler.c ****                 if((cyBle_eventHandlerFlag & CYBLE_CALLBACK) != 0u)
1293:.\Generated_Source\PSoC4/BLE_eventHandler.c ****                 {
1294:.\Generated_Source\PSoC4/BLE_eventHandler.c ****                     CyBle_RscscReadResponseEventHandler((CYBLE_GATTC_READ_RSP_PARAM_T *)eventParam)
1295:.\Generated_Source\PSoC4/BLE_eventHandler.c ****                 }
1296:.\Generated_Source\PSoC4/BLE_eventHandler.c ****             #endif /* CYBLE_RSCS_CLIENT */
1297:.\Generated_Source\PSoC4/BLE_eventHandler.c ****             #ifdef CYBLE_RTUS_CLIENT
1298:.\Generated_Source\PSoC4/BLE_eventHandler.c ****                 if((cyBle_eventHandlerFlag & CYBLE_CALLBACK) != 0u)
1299:.\Generated_Source\PSoC4/BLE_eventHandler.c ****                 {
1300:.\Generated_Source\PSoC4/BLE_eventHandler.c ****                     CyBle_RtuscReadResponseEventHandler((CYBLE_GATTC_READ_RSP_PARAM_T *)eventParam)
1301:.\Generated_Source\PSoC4/BLE_eventHandler.c ****                 }
1302:.\Generated_Source\PSoC4/BLE_eventHandler.c ****             #endif /* CYBLE_RTUS_CLIENT */
1303:.\Generated_Source\PSoC4/BLE_eventHandler.c ****             #ifdef CYBLE_SCPS_CLIENT
1304:.\Generated_Source\PSoC4/BLE_eventHandler.c ****                 if((cyBle_eventHandlerFlag & CYBLE_CALLBACK) != 0u)
1305:.\Generated_Source\PSoC4/BLE_eventHandler.c ****                 {
1306:.\Generated_Source\PSoC4/BLE_eventHandler.c ****                     CyBle_ScpscReadResponseEventHandler((CYBLE_GATTC_READ_RSP_PARAM_T *)eventParam)
1307:.\Generated_Source\PSoC4/BLE_eventHandler.c ****                 }
1308:.\Generated_Source\PSoC4/BLE_eventHandler.c ****             #endif /* CYBLE_SCPS_CLIENT */
1309:.\Generated_Source\PSoC4/BLE_eventHandler.c ****             #ifdef CYBLE_TPS_CLIENT
1310:.\Generated_Source\PSoC4/BLE_eventHandler.c ****                 if((cyBle_eventHandlerFlag & CYBLE_CALLBACK) != 0u)
1311:.\Generated_Source\PSoC4/BLE_eventHandler.c ****                 {
1312:.\Generated_Source\PSoC4/BLE_eventHandler.c ****                     CyBle_TpscReadResponseEventHandler((CYBLE_GATTC_READ_RSP_PARAM_T *)eventParam);
1313:.\Generated_Source\PSoC4/BLE_eventHandler.c ****                 }
1314:.\Generated_Source\PSoC4/BLE_eventHandler.c ****             #endif /* CYBLE_TPS_CLIENT */
1315:.\Generated_Source\PSoC4/BLE_eventHandler.c ****             break;
1316:.\Generated_Source\PSoC4/BLE_eventHandler.c **** 
1317:.\Generated_Source\PSoC4/BLE_eventHandler.c ****         case CYBLE_EVT_GATTC_WRITE_RSP:
1318:.\Generated_Source\PSoC4/BLE_eventHandler.c ****             CyBle_GattcWriteResponseEventHandler((CYBLE_CONN_HANDLE_T *)eventParam);
1319:.\Generated_Source\PSoC4/BLE_eventHandler.c ****             break;
1320:.\Generated_Source\PSoC4/BLE_eventHandler.c ****             
1321:.\Generated_Source\PSoC4/BLE_eventHandler.c ****     #endif /* CYBLE_GATT_ROLE_CLIENT */
1322:.\Generated_Source\PSoC4/BLE_eventHandler.c **** 
1323:.\Generated_Source\PSoC4/BLE_eventHandler.c ****     #if((CYBLE_GAP_ROLE_PERIPHERAL || CYBLE_GAP_ROLE_CENTRAL) && (CYBLE_BONDING_REQUIREMENT == CYBL
1324:.\Generated_Source\PSoC4/BLE_eventHandler.c **** 
1325:.\Generated_Source\PSoC4/BLE_eventHandler.c ****         case CYBLE_EVT_PENDING_FLASH_WRITE:
1326:.\Generated_Source\PSoC4/BLE_eventHandler.c ****             cyBle_pendingFlashWrite |= CYBLE_PENDING_STACK_FLASH_WRITE_BIT;
1327:.\Generated_Source\PSoC4/BLE_eventHandler.c ****             break;
1328:.\Generated_Source\PSoC4/BLE_eventHandler.c ****         
1329:.\Generated_Source\PSoC4/BLE_eventHandler.c ****     #endif  /* (CYBLE_BONDING_REQUIREMENT == CYBLE_BONDING_YES) */
1330:.\Generated_Source\PSoC4/BLE_eventHandler.c ****         default:
1331:.\Generated_Source\PSoC4/BLE_eventHandler.c ****             break;
 833              		.loc 1 1331 0
ARM GAS  C:\Users\Adeel\AppData\Local\Temp\ccys3HkN.s 			page 39


 834 0218 C046     		mov	r8, r8
 835              	.L40:
1332:.\Generated_Source\PSoC4/BLE_eventHandler.c ****     }
1333:.\Generated_Source\PSoC4/BLE_eventHandler.c **** 
1334:.\Generated_Source\PSoC4/BLE_eventHandler.c ****     if(0u != (cyBle_eventHandlerFlag & (CYBLE_CALLBACK | CYBLE_ENABLE_ALL_EVENTS))) 
 836              		.loc 1 1334 0
 837 021a 0D4B     		ldr	r3, .L50
 838 021c 1B78     		ldrb	r3, [r3]
 839 021e DBB2     		uxtb	r3, r3
 840 0220 1A1C     		mov	r2, r3
 841 0222 1123     		mov	r3, #17
 842 0224 1340     		and	r3, r2
 843 0226 0FD0     		beq	.L20
1335:.\Generated_Source\PSoC4/BLE_eventHandler.c ****     {
1336:.\Generated_Source\PSoC4/BLE_eventHandler.c ****         cyBle_eventHandlerFlag &= (uint8)~CYBLE_CALLBACK;
 844              		.loc 1 1336 0
 845 0228 094B     		ldr	r3, .L50
 846 022a 1B78     		ldrb	r3, [r3]
 847 022c DBB2     		uxtb	r3, r3
 848 022e 0122     		mov	r2, #1
 849 0230 9343     		bic	r3, r2
 850 0232 DAB2     		uxtb	r2, r3
 851 0234 064B     		ldr	r3, .L50
 852 0236 1A70     		strb	r2, [r3]
1337:.\Generated_Source\PSoC4/BLE_eventHandler.c ****         CyBle_ApplCallback((uint32)eventCode, eventParam);
 853              		.loc 1 1337 0
 854 0238 124B     		ldr	r3, .L50+52
 855 023a 1B68     		ldr	r3, [r3]
 856 023c FA1D     		add	r2, r7, #7
 857 023e 1178     		ldrb	r1, [r2]
 858 0240 3A68     		ldr	r2, [r7]
 859 0242 081C     		mov	r0, r1
 860 0244 111C     		mov	r1, r2
 861 0246 9847     		blx	r3
 862              	.L20:
1338:.\Generated_Source\PSoC4/BLE_eventHandler.c ****     }
1339:.\Generated_Source\PSoC4/BLE_eventHandler.c **** 
1340:.\Generated_Source\PSoC4/BLE_eventHandler.c **** }
 863              		.loc 1 1340 0
 864 0248 BD46     		mov	sp, r7
 865 024a 04B0     		add	sp, sp, #16
 866              		@ sp needed
 867 024c 80BD     		pop	{r7, pc}
 868              	.L51:
 869 024e C046     		.align	2
 870              	.L50:
 871 0250 00000000 		.word	cyBle_eventHandlerFlag
 872 0254 00000000 		.word	.L23
 873 0258 00000000 		.word	cyBle_sflashDeviceAddress
 874 025c 7CF1FF0F 		.word	268431740
 875 0260 00000000 		.word	cyBle_deviceAddress
 876 0264 7DF1FF0F 		.word	268431741
 877 0268 7BF1FF0F 		.word	268431739
 878 026c 00000000 		.word	cyBle_state
 879 0270 00000000 		.word	cyBle_busStatus
 880 0274 00000000 		.word	cyBle_authInfo
 881 0278 00000000 		.word	cyBle_connHandle
ARM GAS  C:\Users\Adeel\AppData\Local\Temp\ccys3HkN.s 			page 40


 882 027c 00000000 		.word	cyBle_attValuesCCCDFlashMemory
 883 0280 00000000 		.word	cyBle_attValuesCCCD
 884 0284 00000000 		.word	CyBle_ApplCallback
 885              		.cfi_endproc
 886              	.LFE10:
 887              		.size	CyBle_EventHandler, .-CyBle_EventHandler
 888              		.text
 889              	.Letext0:
 890              		.file 2 ".\\Generated_Source\\PSoC4\\cytypes.h"
 891              		.file 3 ".\\Generated_Source\\PSoC4\\BLE_Stack.h"
 892              		.file 4 ".\\Generated_Source\\PSoC4\\BLE_StackHostMain.h"
 893              		.file 5 ".\\Generated_Source\\PSoC4\\BLE_StackGap.h"
 894              		.file 6 ".\\Generated_Source\\PSoC4\\BLE_StackGatt.h"
 895              		.file 7 ".\\Generated_Source\\PSoC4\\BLE_StackGattServer.h"
 896              		.file 8 ".\\Generated_Source\\PSoC4\\BLE.h"
 897              		.file 9 ".\\Generated_Source\\PSoC4\\BLE_eventHandler.h"
 898              		.file 10 ".\\Generated_Source\\PSoC4\\BLE_gatt.h"