ARM GAS  C:\Users\Adeel\AppData\Local\Temp\cceBiFfP.s 			page 1


   1              		.cpu cortex-m0
   2              		.fpu softvfp
   3              		.eabi_attribute 20, 1
   4              		.eabi_attribute 21, 1
   5              		.eabi_attribute 23, 3
   6              		.eabi_attribute 24, 1
   7              		.eabi_attribute 25, 1
   8              		.eabi_attribute 26, 1
   9              		.eabi_attribute 30, 6
  10              		.eabi_attribute 34, 0
  11              		.eabi_attribute 18, 4
  12              		.code	16
  13              		.file	"main.c"
  14              		.text
  15              	.Ltext0:
  16              		.cfi_sections	.debug_frame
  17              		.global	initializeCapSenseBaseline
  18              		.data
  19              		.type	initializeCapSenseBaseline, %object
  20              		.size	initializeCapSenseBaseline, 1
  21              	initializeCapSenseBaseline:
  22 0000 01       		.byte	1
  23              		.section	.text.main,"ax",%progbits
  24              		.align	2
  25              		.global	main
  26              		.code	16
  27              		.thumb_func
  28              		.type	main, %function
  29              	main:
  30              	.LFB35:
  31              		.file 1 ".\\main.c"
   1:.\main.c      **** /******************************************************************************
   2:.\main.c      **** * Project Name		: PSoC_4_BLE_CapSense_Proximity
   3:.\main.c      **** * File Name			: main.c
   4:.\main.c      **** * Version 			: 1.0
   5:.\main.c      **** * Device Used		: CY8C4247LQI-BL483
   6:.\main.c      **** * Software Used		: PSoC Creator 3.1
   7:.\main.c      **** * Compiler    		: ARM GCC 4.8.4, ARM RVDS Generic, ARM MDK Generic
   8:.\main.c      **** * Related Hardware	: CY8CKIT-042-BLE Bluetooth Low Energy Pioneer Kit 
   9:.\main.c      **** * Owner				: ROIT
  10:.\main.c      **** *
  11:.\main.c      **** ********************************************************************************
  12:.\main.c      **** * Copyright (2014), Cypress Semiconductor Corporation. All Rights Reserved.
  13:.\main.c      **** ********************************************************************************
  14:.\main.c      **** * This software is owned by Cypress Semiconductor Corporation (Cypress)
  15:.\main.c      **** * and is protected by and subject to worldwide patent protection (United
  16:.\main.c      **** * States and foreign), United States copyright laws and international treaty
  17:.\main.c      **** * provisions. Cypress hereby grants to licensee a personal, non-exclusive,
  18:.\main.c      **** * non-transferable license to copy, use, modify, create derivative works of,
  19:.\main.c      **** * and compile the Cypress Source Code and derivative works for the sole
  20:.\main.c      **** * purpose of creating custom software in support of licensee product to be
  21:.\main.c      **** * used only in conjunction with a Cypress integrated circuit as specified in
  22:.\main.c      **** * the applicable agreement. Any reproduction, modification, translation,
  23:.\main.c      **** * compilation, or representation of this software except as specified above 
  24:.\main.c      **** * is prohibited without the express written permission of Cypress.
  25:.\main.c      **** *
  26:.\main.c      **** * Disclaimer: CYPRESS MAKES NO WARRANTY OF ANY KIND, EXPRESS OR IMPLIED, WITH 
ARM GAS  C:\Users\Adeel\AppData\Local\Temp\cceBiFfP.s 			page 2


  27:.\main.c      **** * REGARD TO THIS MATERIAL, INCLUDING, BUT NOT LIMITED TO, THE IMPLIED 
  28:.\main.c      **** * WARRANTIES OF MERCHANTABILITY AND FITNESS FOR A PARTICULAR PURPOSE.
  29:.\main.c      **** * Cypress reserves the right to make changes without further notice to the 
  30:.\main.c      **** * materials described herein. Cypress does not assume any liability arising out 
  31:.\main.c      **** * of the application or use of any product or circuit described herein. Cypress 
  32:.\main.c      **** * does not authorize its products for use as critical components in life-support 
  33:.\main.c      **** * systems where a malfunction or failure may reasonably be expected to result in 
  34:.\main.c      **** * significant injury to the user. The inclusion of Cypress' product in a life-
  35:.\main.c      **** * support systems application implies that the manufacturer assumes all risk of 
  36:.\main.c      **** * such use and in doing so indemnifies Cypress against all charges. 
  37:.\main.c      **** *
  38:.\main.c      **** * Use of this Software may be limited by and subject to the applicable Cypress
  39:.\main.c      **** * software license agreement. 
  40:.\main.c      **** *******************************************************************************/
  41:.\main.c      **** 
  42:.\main.c      **** /******************************************************************************
  43:.\main.c      **** *                           THEORY OF OPERATION
  44:.\main.c      **** *******************************************************************************
  45:.\main.c      **** * The project will show case the capability of PSoC 4 BLE to communicate with
  46:.\main.c      **** * a BLE Central device. The data communicated is the CapSense proximity value,
  47:.\main.c      **** * sent from PSoC 4 BLE over a custom service. This custom service allows
  48:.\main.c      **** * notifications to be sent to central device after notifications are enabled.
  49:.\main.c      **** * This project utilizes CapSense component to detect the change in capacitance
  50:.\main.c      **** * of the proximity sensor and report this to central device over BLE.
  51:.\main.c      **** * The BLE central device can be either BLE capable smartphone with associated 
  52:.\main.c      **** * mobile application or CySmart PC tool.
  53:.\main.c      **** * This project also inludes low power mode operation, idle for battery operated 
  54:.\main.c      **** * devices. The project utlizes Deep Sleep feature of both BLESS and CPU to remain 
  55:.\main.c      **** * in low power mode as much as possible, while maintaining the BLE connection and  
  56:.\main.c      **** * data transfer. This allows the device to run on coin cell battery for long time.
  57:.\main.c      **** *
  58:.\main.c      **** * Note:
  59:.\main.c      **** * The programming pins have been configured as GPIO, and not SWD. This is because 
  60:.\main.c      **** * when programming pins are configured for SWD, then the silicon consumes extra
  61:.\main.c      **** * power through the pins. To prevent the leakage of power, the pins have been set 
  62:.\main.c      **** * to GPIO. With this setting, the kit can still be acquired by PSoC Creator or
  63:.\main.c      **** * PSoC Programmer software tools for programming, but the project cannot be 
  64:.\main.c      **** * externally debugged. To re-enable debugging, go to PSoC_4_BLE_CapSense.cydwr from
  65:.\main.c      **** * Workspace Explorer, go to Systems tab, and set the Debug Select option to 'SWD'.
  66:.\main.c      **** * Build and program this project to enable external Debugging.
  67:.\main.c      **** *
  68:.\main.c      **** * Refer to BLE Pioneer Kit user guide for details.
  69:.\main.c      **** *******************************************************************************
  70:.\main.c      **** * Hardware connection required for testing -
  71:.\main.c      **** * PROX pin 		- P2[0] (requires an external wire-loop connection to PROX sensor)
  72:.\main.c      **** * Cmod pin		- P4[0] (hard-wired in the PSoC 4 BLE Module)
  73:.\main.c      **** * User Button	- P2[7] (hard-wired on BLE Pioneer Kit)
  74:.\main.c      **** * Status LED	- P3[7] (hard-wired on BLE Pioneer Kit)
  75:.\main.c      **** ******************************************************************************/
  76:.\main.c      **** #include <main.h>
  77:.\main.c      **** 
  78:.\main.c      **** /*'deviceConnected' flag is used by application to know whether a Central device  
  79:.\main.c      **** * has been connected. This is updated in BLE event callback */
  80:.\main.c      **** extern uint8 deviceConnected;
  81:.\main.c      **** 
  82:.\main.c      **** /*'startNotification' flag is set when the central device writes to CCC (Client  
  83:.\main.c      **** * Characteristic Configuration) of the CapSense proximity characteristic to 
ARM GAS  C:\Users\Adeel\AppData\Local\Temp\cceBiFfP.s 			page 3


  84:.\main.c      **** * enable notifications */
  85:.\main.c      **** extern uint8 startNotification;	
  86:.\main.c      **** 
  87:.\main.c      **** /* 'restartAdvertisement' flag is used to restart advertisement */
  88:.\main.c      **** extern uint8 restartAdvertisement;
  89:.\main.c      **** 
  90:.\main.c      **** /* 'initializeCapSenseBaseline' flag is used to call the function once that initializes 
  91:.\main.c      **** * all CapSense baseline. The baseline is initialized when the first advertisement 
  92:.\main.c      **** * is started. This is done so that any external disturbance while powering the kit does 
  93:.\main.c      **** * not infliuence the baseline value, that may cause wrong readings. */
  94:.\main.c      **** uint8 initializeCapSenseBaseline = TRUE;
  95:.\main.c      **** 
  96:.\main.c      **** /*******************************************************************************
  97:.\main.c      **** * Function Name: main
  98:.\main.c      **** ********************************************************************************
  99:.\main.c      **** * Summary:
 100:.\main.c      **** *        System entrance point. This calls the BLE routine functions as well as
 101:.\main.c      **** * function for handling CapSense Proximity changes
 102:.\main.c      **** *
 103:.\main.c      **** * Parameters:
 104:.\main.c      **** *  void
 105:.\main.c      **** *
 106:.\main.c      **** * Return:
 107:.\main.c      **** *  int
 108:.\main.c      **** *
 109:.\main.c      **** 
 110:.\main.c      **** *******************************************************************************/
 111:.\main.c      **** int main()
 112:.\main.c      **** {
  32              		.loc 1 112 0
  33              		.cfi_startproc
  34 0000 80B5     		push	{r7, lr}
  35              		.cfi_def_cfa_offset 8
  36              		.cfi_offset 7, -8
  37              		.cfi_offset 14, -4
  38 0002 00AF     		add	r7, sp, #0
  39              		.cfi_def_cfa_register 7
 113:.\main.c      ****     /* This function will initialize the system resources such as BLE and CapSense */
 114:.\main.c      **** 	InitializeSystem();
  40              		.loc 1 114 0
  41 0004 FFF7FEFF 		bl	InitializeSystem
  42              	.L5:
 115:.\main.c      **** 	
 116:.\main.c      ****     for(;;)
 117:.\main.c      ****     {
 118:.\main.c      **** 		/*Process Event callback to handle BLE events. The events generated and 
 119:.\main.c      **** 		* used for this application are inside the 'CustomEventHandler' routine*/
 120:.\main.c      **** 		CyBle_ProcessEvents();
  43              		.loc 1 120 0
  44 0008 FFF7FEFF 		bl	CyBle_ProcessEvents
 121:.\main.c      **** 		
 122:.\main.c      **** 		/* Function to handle LED status depending on BLE state */
 123:.\main.c      **** 		HandleStatusLED();
  45              		.loc 1 123 0
  46 000c FFF7FEFF 		bl	HandleStatusLED
 124:.\main.c      **** 		
 125:.\main.c      **** 		/* Handle proximity data and CCCD value update only if BLE device is connected */
ARM GAS  C:\Users\Adeel\AppData\Local\Temp\cceBiFfP.s 			page 4


 126:.\main.c      **** 		if(TRUE == deviceConnected) 
  47              		.loc 1 126 0
  48 0010 114B     		ldr	r3, .L6
  49 0012 1B78     		ldrb	r3, [r3]
  50 0014 012B     		cmp	r3, #1
  51 0016 12D1     		bne	.L2
 127:.\main.c      **** 		{	
 128:.\main.c      **** 			/* When the Client Characteristic Configuration descriptor (CCCD) is written
 129:.\main.c      **** 			* by Central device for enabling/disabling notifications, then the same
 130:.\main.c      **** 			* descriptor value has to be explicitly updated in application so that
 131:.\main.c      **** 			* it reflects the correct value when the descriptor is read */
 132:.\main.c      **** 			UpdateNotificationCCCD();
  52              		.loc 1 132 0
  53 0018 FFF7FEFF 		bl	UpdateNotificationCCCD
 133:.\main.c      **** 			
 134:.\main.c      **** 			/* If CapSense Initialize Baseline API has not been called yet, call the
 135:.\main.c      **** 			* API and reset the flag. */
 136:.\main.c      **** 			if(initializeCapSenseBaseline)
  54              		.loc 1 136 0
  55 001c 0F4B     		ldr	r3, .L6+4
  56 001e 1B78     		ldrb	r3, [r3]
  57 0020 002B     		cmp	r3, #0
  58 0022 04D0     		beq	.L3
 137:.\main.c      **** 			{
 138:.\main.c      **** 				/* Reset 'initializeCapSenseBaseline' flag*/
 139:.\main.c      **** 				initializeCapSenseBaseline = FALSE;
  59              		.loc 1 139 0
  60 0024 0D4B     		ldr	r3, .L6+4
  61 0026 0022     		mov	r2, #0
  62 0028 1A70     		strb	r2, [r3]
 140:.\main.c      **** 				
 141:.\main.c      **** 				/* Initialize all CapSense Baseline */
 142:.\main.c      **** 				CapSense_InitializeAllBaselines();
  63              		.loc 1 142 0
  64 002a FFF7FEFF 		bl	CapSense_InitializeAllBaselines
  65              	.L3:
 143:.\main.c      **** 			}
 144:.\main.c      **** 			
 145:.\main.c      **** 			/* Send proximity data when notifications are enabled */
 146:.\main.c      **** 			if(startNotification & CCCD_NTF_BIT_MASK)
  66              		.loc 1 146 0
  67 002e 0C4B     		ldr	r3, .L6+8
  68 0030 1B78     		ldrb	r3, [r3]
  69 0032 1A1C     		mov	r2, r3
  70 0034 0123     		mov	r3, #1
  71 0036 1340     		and	r3, r2
  72 0038 01D0     		beq	.L2
 147:.\main.c      **** 			{
 148:.\main.c      **** 				/*Check for CapSense proximity change and report to BLE central device*/
 149:.\main.c      **** 				HandleCapSenseProximity();
  73              		.loc 1 149 0
  74 003a FFF7FEFF 		bl	HandleCapSenseProximity
  75              	.L2:
 150:.\main.c      **** 			}
 151:.\main.c      **** 		}
 152:.\main.c      **** 
 153:.\main.c      **** 		if(restartAdvertisement)
ARM GAS  C:\Users\Adeel\AppData\Local\Temp\cceBiFfP.s 			page 5


  76              		.loc 1 153 0
  77 003e 094B     		ldr	r3, .L6+12
  78 0040 1B78     		ldrb	r3, [r3]
  79 0042 002B     		cmp	r3, #0
  80 0044 06D0     		beq	.L4
 154:.\main.c      **** 		{
 155:.\main.c      **** 			/* Reset 'restartAdvertisement' flag*/
 156:.\main.c      **** 			restartAdvertisement = FALSE;
  81              		.loc 1 156 0
  82 0046 074B     		ldr	r3, .L6+12
  83 0048 0022     		mov	r2, #0
  84 004a 1A70     		strb	r2, [r3]
 157:.\main.c      **** 			
 158:.\main.c      **** 			/* Start Advertisement and enter Discoverable mode*/
 159:.\main.c      **** 			CyBle_GappStartAdvertisement(CYBLE_ADVERTISING_FAST);	
  85              		.loc 1 159 0
  86 004c 0020     		mov	r0, #0
  87 004e FFF7FEFF 		bl	CyBle_GappStartAdvertisement
 160:.\main.c      **** 		}
 161:.\main.c      ****     }	/* This is end of for(;;) */
  88              		.loc 1 161 0
  89 0052 D9E7     		b	.L5
  90              	.L4:
  91 0054 D8E7     		b	.L5
  92              	.L7:
  93 0056 C046     		.align	2
  94              	.L6:
  95 0058 00000000 		.word	deviceConnected
  96 005c 00000000 		.word	initializeCapSenseBaseline
  97 0060 00000000 		.word	startNotification
  98 0064 00000000 		.word	restartAdvertisement
  99              		.cfi_endproc
 100              	.LFE35:
 101              		.size	main, .-main
 102              		.section	.text.InitializeSystem,"ax",%progbits
 103              		.align	2
 104              		.global	InitializeSystem
 105              		.code	16
 106              		.thumb_func
 107              		.type	InitializeSystem, %function
 108              	InitializeSystem:
 109              	.LFB36:
 162:.\main.c      **** }
 163:.\main.c      **** 
 164:.\main.c      **** /*******************************************************************************
 165:.\main.c      **** * Function Name: InitializeSystem
 166:.\main.c      **** ********************************************************************************
 167:.\main.c      **** * Summary:
 168:.\main.c      **** *        Starts the components and initializes CapSense baselines
 169:.\main.c      **** *
 170:.\main.c      **** * Parameters:
 171:.\main.c      **** *  void
 172:.\main.c      **** *
 173:.\main.c      **** * Return:
 174:.\main.c      **** *  void
 175:.\main.c      **** *
 176:.\main.c      **** 
ARM GAS  C:\Users\Adeel\AppData\Local\Temp\cceBiFfP.s 			page 6


 177:.\main.c      **** *******************************************************************************/
 178:.\main.c      **** void InitializeSystem(void)
 179:.\main.c      **** {
 110              		.loc 1 179 0
 111              		.cfi_startproc
 112 0000 80B5     		push	{r7, lr}
 113              		.cfi_def_cfa_offset 8
 114              		.cfi_offset 7, -8
 115              		.cfi_offset 14, -4
 116 0002 00AF     		add	r7, sp, #0
 117              		.cfi_def_cfa_register 7
 180:.\main.c      **** 	/* Enable global interrupt mask */
 181:.\main.c      **** 	CyGlobalIntEnable;
 118              		.loc 1 181 0
 119              	@ 181 ".\main.c" 1
 120 0004 62B6     		CPSIE   i
 121              	@ 0 "" 2
 182:.\main.c      **** 
 183:.\main.c      **** 	/* Start BLE component and register the CustomEventHandler function. This 
 184:.\main.c      **** 	* function exposes the events from BLE component for application use */
 185:.\main.c      **** 	CyBle_Start(CustomEventHandler);					
 122              		.loc 1 185 0
 123              		.code	16
 124 0006 074B     		ldr	r3, .L9
 125 0008 181C     		mov	r0, r3
 126 000a FFF7FEFF 		bl	CyBle_Start
 186:.\main.c      **** 	
 187:.\main.c      **** 	/* Set drive mode of the status LED pin to Strong*/
 188:.\main.c      **** 	Status_LED_SetDriveMode(Status_LED_DM_STRONG);	
 127              		.loc 1 188 0
 128 000e 0620     		mov	r0, #6
 129 0010 FFF7FEFF 		bl	Status_LED_SetDriveMode
 189:.\main.c      **** 	
 190:.\main.c      **** 	#ifdef CAPSENSE_ENABLED
 191:.\main.c      **** 	/* Enable the proximity widget explicitly and start CapSense component. 
 192:.\main.c      **** 	* Initialization of the baseline is done when the first connection 
 193:.\main.c      **** 	* happens  */
 194:.\main.c      **** 	CapSense_EnableWidget(CapSense_PROXIMITYSENSOR0__PROX);
 130              		.loc 1 194 0
 131 0014 0020     		mov	r0, #0
 132 0016 FFF7FEFF 		bl	CapSense_EnableWidget
 195:.\main.c      **** 	CapSense_Start();
 133              		.loc 1 195 0
 134 001a FFF7FEFF 		bl	CapSense_Start
 196:.\main.c      **** 	#endif
 197:.\main.c      **** 		
 198:.\main.c      **** }
 135              		.loc 1 198 0
 136 001e BD46     		mov	sp, r7
 137              		@ sp needed
 138 0020 80BD     		pop	{r7, pc}
 139              	.L10:
 140 0022 C046     		.align	2
 141              	.L9:
 142 0024 00000000 		.word	CustomEventHandler
 143              		.cfi_endproc
 144              	.LFE36:
ARM GAS  C:\Users\Adeel\AppData\Local\Temp\cceBiFfP.s 			page 7


 145              		.size	InitializeSystem, .-InitializeSystem
 146              		.section	.text.HandleCapSenseProximity,"ax",%progbits
 147              		.align	2
 148              		.global	HandleCapSenseProximity
 149              		.code	16
 150              		.thumb_func
 151              		.type	HandleCapSenseProximity, %function
 152              	HandleCapSenseProximity:
 153              	.LFB37:
 199:.\main.c      **** 
 200:.\main.c      **** /*******************************************************************************
 201:.\main.c      **** * Function Name: HandleCapSenseProximity
 202:.\main.c      **** ********************************************************************************
 203:.\main.c      **** * Summary:
 204:.\main.c      **** *       Read the proximity data from the sensor and update the BLE
 205:.\main.c      **** *		custom notification value.
 206:.\main.c      **** *
 207:.\main.c      **** * Parameters:
 208:.\main.c      **** *  void
 209:.\main.c      **** *
 210:.\main.c      **** * Return:
 211:.\main.c      **** *  void
 212:.\main.c      **** *
 213:.\main.c      **** *******************************************************************************/
 214:.\main.c      **** void HandleCapSenseProximity(void)
 215:.\main.c      **** {
 154              		.loc 1 215 0
 155              		.cfi_startproc
 156 0000 90B5     		push	{r4, r7, lr}
 157              		.cfi_def_cfa_offset 12
 158              		.cfi_offset 4, -12
 159              		.cfi_offset 7, -8
 160              		.cfi_offset 14, -4
 161 0002 83B0     		sub	sp, sp, #12
 162              		.cfi_def_cfa_offset 24
 163 0004 00AF     		add	r7, sp, #0
 164              		.cfi_def_cfa_register 7
 216:.\main.c      **** 	#ifdef CAPSENSE_ENABLED
 217:.\main.c      **** 	/* Static variable used as counter for reading the new proximity value */
 218:.\main.c      **** 	static uint16 proxCounter = TRUE;			
 219:.\main.c      **** 				
 220:.\main.c      **** 	/* 'proximityValue' stores the proximity value read from CapSense component */
 221:.\main.c      **** 	uint8 proximityValue;	
 222:.\main.c      **** 		
 223:.\main.c      **** 	/* Check if proxCounter has reached its counting value */
 224:.\main.c      **** 	if(FALSE == (--proxCounter))			
 165              		.loc 1 224 0
 166 0006 134B     		ldr	r3, .L14
 167 0008 1B88     		ldrh	r3, [r3]
 168 000a 013B     		sub	r3, r3, #1
 169 000c 9AB2     		uxth	r2, r3
 170 000e 114B     		ldr	r3, .L14
 171 0010 1A80     		strh	r2, [r3]
 172 0012 104B     		ldr	r3, .L14
 173 0014 1B88     		ldrh	r3, [r3]
 174 0016 002B     		cmp	r3, #0
 175 0018 18D1     		bne	.L11
ARM GAS  C:\Users\Adeel\AppData\Local\Temp\cceBiFfP.s 			page 8


 225:.\main.c      **** 	{
 226:.\main.c      **** 		/* Set 'proxCounter' to the PROX_COUNTER_VALUE. This counter prevents sending 
 227:.\main.c      **** 		   of large number of CapSense proximity data to BLE Central device */
 228:.\main.c      **** 		proxCounter = PROX_COUNTER_VALUE;
 176              		.loc 1 228 0
 177 001a 0E4B     		ldr	r3, .L14
 178 001c 0522     		mov	r2, #5
 179 001e 1A80     		strh	r2, [r3]
 229:.\main.c      **** 
 230:.\main.c      **** 		/* Scan the Proximity Widget */
 231:.\main.c      **** 		CapSense_ScanWidget(CapSense_PROXIMITYSENSOR0__PROX);				
 180              		.loc 1 231 0
 181 0020 0020     		mov	r0, #0
 182 0022 FFF7FEFF 		bl	CapSense_ScanWidget
 232:.\main.c      **** 		
 233:.\main.c      **** 		/* Wait for CapSense scanning to be complete. This could take about 5 ms */
 234:.\main.c      **** 		while(CapSense_IsBusy())
 183              		.loc 1 234 0
 184 0026 C046     		mov	r8, r8
 185              	.L13:
 186              		.loc 1 234 0 is_stmt 0 discriminator 1
 187 0028 FFF7FEFF 		bl	CapSense_IsBusy
 188 002c 031C     		mov	r3, r0
 189 002e 002B     		cmp	r3, #0
 190 0030 FAD1     		bne	.L13
 235:.\main.c      **** 		{
 236:.\main.c      **** 		}
 237:.\main.c      **** 		
 238:.\main.c      **** 		/* Update CapSense Baseline */
 239:.\main.c      **** 		CapSense_UpdateEnabledBaselines();			
 191              		.loc 1 239 0 is_stmt 1
 192 0032 FFF7FEFF 		bl	CapSense_UpdateEnabledBaselines
 240:.\main.c      **** 
 241:.\main.c      **** 		/* Get the Diffcount between proximity raw data and baseline */
 242:.\main.c      **** 		proximityValue = CapSense_GetDiffCountData(CapSense_PROXIMITYSENSOR0__PROX);
 193              		.loc 1 242 0
 194 0036 FC1D     		add	r4, r7, #7
 195 0038 0020     		mov	r0, #0
 196 003a FFF7FEFF 		bl	CapSense_GetDiffCountData
 197 003e 031C     		mov	r3, r0
 198 0040 2370     		strb	r3, [r4]
 243:.\main.c      **** 		
 244:.\main.c      **** 		/* Send the proximity data to BLE central device by notifications*/
 245:.\main.c      **** 		SendDataOverCapSenseNotification(proximityValue);
 199              		.loc 1 245 0
 200 0042 FB1D     		add	r3, r7, #7
 201 0044 1B78     		ldrb	r3, [r3]
 202 0046 181C     		mov	r0, r3
 203 0048 FFF7FEFF 		bl	SendDataOverCapSenseNotification
 204              	.L11:
 246:.\main.c      **** 			
 247:.\main.c      **** 	}
 248:.\main.c      **** 	#endif
 249:.\main.c      **** }
 205              		.loc 1 249 0
 206 004c BD46     		mov	sp, r7
 207 004e 03B0     		add	sp, sp, #12
ARM GAS  C:\Users\Adeel\AppData\Local\Temp\cceBiFfP.s 			page 9


 208              		@ sp needed
 209 0050 90BD     		pop	{r4, r7, pc}
 210              	.L15:
 211 0052 C046     		.align	2
 212              	.L14:
 213 0054 02000000 		.word	proxCounter.6574
 214              		.cfi_endproc
 215              	.LFE37:
 216              		.size	HandleCapSenseProximity, .-HandleCapSenseProximity
 217              		.data
 218 0001 00       		.align	1
 219              		.type	proxCounter.6574, %object
 220              		.size	proxCounter.6574, 2
 221              	proxCounter.6574:
 222 0002 0100     		.short	1
 223              		.text
 224              	.Letext0:
 225              		.file 2 "Generated_Source\\PSoC4/cytypes.h"
 226              		.file 3 "Generated_Source\\PSoC4/BLE_Stack.h"